
MagicCube.elf:     file format elf32-littlearm

Sections:
Idx Name          Size      VMA       LMA       File off  Algn
  0 .text         000038a4  10001000  10001000  00001000  2**3
                  CONTENTS, ALLOC, LOAD, READONLY, CODE
  1 .eh_frame     00000000  100048a4  100048a4  000048a4  2**2
                  CONTENTS, ALLOC, LOAD, READONLY, DATA
  2 .VENEER_Code  00000110  2000000c  100048a4  0000800c  2**2
                  CONTENTS, ALLOC, LOAD, READONLY, CODE
  3 Stack         00000404  2000011c  00000000  0000011c  2**0
                  ALLOC
  4 .data         00000070  20000520  100049b4  00008520  2**2
                  CONTENTS, ALLOC, LOAD, DATA
  5 .bss          00000080  20000590  10004a24  00008590  2**2
                  ALLOC
  6 .no_init      00000004  20003ffc  10008490  00008590  2**2
                  ALLOC
  7 .stab         0001305c  00000000  00000000  00008590  2**2
                  CONTENTS, READONLY, DEBUGGING
  8 .stabstr      00069311  00000000  00000000  0001b5ec  2**0
                  CONTENTS, READONLY, DEBUGGING
  9 .debug_frame  00004124  00000000  00000000  00084900  2**2
                  CONTENTS, READONLY, DEBUGGING
 10 .build_attributes 0000068d  00000000  00000000  00088a24  2**0
                  CONTENTS, READONLY

Disassembly of section .text:

10001000 <__Vectors>:
10001000:	20 05 00 20 19 10 00 10 00 00 00 00 99 10 00 10      .. ............
10001010:	00 04 01 00 00 00 00 80                             ........

10001018 <Reset_Handler>:
10001018:	4911      	ldr	r1, [pc, #68]	; (10001060 <__copy_data+0xe>)
1000101a:	4a12      	ldr	r2, [pc, #72]	; (10001064 <__copy_data+0x12>)
1000101c:	4b12      	ldr	r3, [pc, #72]	; (10001068 <__copy_data+0x16>)
1000101e:	f000 f818 	bl	10001052 <__copy_data>
10001022:	4812      	ldr	r0, [pc, #72]	; (1000106c <__copy_data+0x1a>)
10001024:	4780      	blx	r0
10001026:	4912      	ldr	r1, [pc, #72]	; (10001070 <__copy_data+0x1e>)
10001028:	4a12      	ldr	r2, [pc, #72]	; (10001074 <__copy_data+0x22>)
1000102a:	4b13      	ldr	r3, [pc, #76]	; (10001078 <__copy_data+0x26>)
1000102c:	f000 f811 	bl	10001052 <__copy_data>
10001030:	4912      	ldr	r1, [pc, #72]	; (1000107c <__copy_data+0x2a>)
10001032:	4a13      	ldr	r2, [pc, #76]	; (10001080 <__copy_data+0x2e>)
10001034:	4b13      	ldr	r3, [pc, #76]	; (10001084 <__copy_data+0x32>)
10001036:	f000 f80c 	bl	10001052 <__copy_data>
1000103a:	4913      	ldr	r1, [pc, #76]	; (10001088 <__copy_data+0x36>)
1000103c:	4a13      	ldr	r2, [pc, #76]	; (1000108c <__copy_data+0x3a>)
1000103e:	2000      	movs	r0, #0
10001040:	1a52      	subs	r2, r2, r1
10001042:	dd02      	ble.n	1000104a <Reset_Handler+0x32>
10001044:	3a04      	subs	r2, #4
10001046:	5088      	str	r0, [r1, r2]
10001048:	dcfc      	bgt.n	10001044 <Reset_Handler+0x2c>
1000104a:	4811      	ldr	r0, [pc, #68]	; (10001090 <__copy_data+0x3e>)
1000104c:	4780      	blx	r0
1000104e:	4811      	ldr	r0, [pc, #68]	; (10001094 <__copy_data+0x42>)
10001050:	4780      	blx	r0

10001052 <__copy_data>:
10001052:	1a9b      	subs	r3, r3, r2
10001054:	dd03      	ble.n	1000105e <__copy_data+0xc>
10001056:	3b04      	subs	r3, #4
10001058:	58c8      	ldr	r0, [r1, r3]
1000105a:	50d0      	str	r0, [r2, r3]
1000105c:	dcfb      	bgt.n	10001056 <__copy_data+0x4>
1000105e:	4770      	bx	lr
10001060:	100048a4 	.word	0x100048a4
10001064:	2000000c 	.word	0x2000000c
10001068:	2000011c 	.word	0x2000011c
1000106c:	100039f9 	.word	0x100039f9
10001070:	100049b4 	.word	0x100049b4
10001074:	20000520 	.word	0x20000520
10001078:	20000590 	.word	0x20000590
1000107c:	10004a24 	.word	0x10004a24
10001080:	20000590 	.word	0x20000590
10001084:	20000590 	.word	0x20000590
10001088:	20000590 	.word	0x20000590
1000108c:	20000610 	.word	0x20000610
10001090:	10004499 	.word	0x10004499
10001094:	10003f21 	.word	0x10003f21

10001098 <CCU40_0_IRQHandler>:
10001098:	e7fe      	b.n	10001098 <CCU40_0_IRQHandler>
	...

1000109c <_ZN7PinBaseC1EPVmm>:
1000109c:	b580      	push	{r7, lr}
1000109e:	b084      	sub	sp, #16
100010a0:	af00      	add	r7, sp, #0
100010a2:	60f8      	str	r0, [r7, #12]
100010a4:	60b9      	str	r1, [r7, #8]
100010a6:	607a      	str	r2, [r7, #4]
100010a8:	68fb      	ldr	r3, [r7, #12]
100010aa:	4a06      	ldr	r2, [pc, #24]	; (100010c4 <_ZN7PinBaseC1EPVmm+0x28>)
100010ac:	601a      	str	r2, [r3, #0]
100010ae:	68fb      	ldr	r3, [r7, #12]
100010b0:	68ba      	ldr	r2, [r7, #8]
100010b2:	605a      	str	r2, [r3, #4]
100010b4:	68fb      	ldr	r3, [r7, #12]
100010b6:	687a      	ldr	r2, [r7, #4]
100010b8:	609a      	str	r2, [r3, #8]
100010ba:	68fb      	ldr	r3, [r7, #12]
100010bc:	1c18      	adds	r0, r3, #0
100010be:	46bd      	mov	sp, r7
100010c0:	b004      	add	sp, #16
100010c2:	bd80      	pop	{r7, pc}
100010c4:	10004758 	.word	0x10004758

100010c8 <_ZN7PinBaseD1Ev>:
100010c8:	b580      	push	{r7, lr}
100010ca:	b082      	sub	sp, #8
100010cc:	af00      	add	r7, sp, #0
100010ce:	6078      	str	r0, [r7, #4]
100010d0:	687b      	ldr	r3, [r7, #4]
100010d2:	4a07      	ldr	r2, [pc, #28]	; (100010f0 <_ZN7PinBaseD1Ev+0x28>)
100010d4:	601a      	str	r2, [r3, #0]
100010d6:	2300      	movs	r3, #0
100010d8:	2b00      	cmp	r3, #0
100010da:	d003      	beq.n	100010e4 <_ZN7PinBaseD1Ev+0x1c>
100010dc:	687b      	ldr	r3, [r7, #4]
100010de:	1c18      	adds	r0, r3, #0
100010e0:	f003 f866 	bl	100041b0 <_ZdlPv>
100010e4:	687b      	ldr	r3, [r7, #4]
100010e6:	1c18      	adds	r0, r3, #0
100010e8:	46bd      	mov	sp, r7
100010ea:	b002      	add	sp, #8
100010ec:	bd80      	pop	{r7, pc}
100010ee:	46c0      	nop			; (mov r8, r8)
100010f0:	10004758 	.word	0x10004758

100010f4 <_ZN7PinBaseD0Ev>:
100010f4:	b580      	push	{r7, lr}
100010f6:	b082      	sub	sp, #8
100010f8:	af00      	add	r7, sp, #0
100010fa:	6078      	str	r0, [r7, #4]
100010fc:	687b      	ldr	r3, [r7, #4]
100010fe:	1c18      	adds	r0, r3, #0
10001100:	f7ff ffe2 	bl	100010c8 <_ZN7PinBaseD1Ev>
10001104:	687b      	ldr	r3, [r7, #4]
10001106:	1c18      	adds	r0, r3, #0
10001108:	f003 f852 	bl	100041b0 <_ZdlPv>
1000110c:	687b      	ldr	r3, [r7, #4]
1000110e:	1c18      	adds	r0, r3, #0
10001110:	46bd      	mov	sp, r7
10001112:	b002      	add	sp, #8
10001114:	bd80      	pop	{r7, pc}
10001116:	46c0      	nop			; (mov r8, r8)

10001118 <_ZN7PinBase4highEv>:
10001118:	b580      	push	{r7, lr}
1000111a:	b082      	sub	sp, #8
1000111c:	af00      	add	r7, sp, #0
1000111e:	6078      	str	r0, [r7, #4]
10001120:	687b      	ldr	r3, [r7, #4]
10001122:	685b      	ldr	r3, [r3, #4]
10001124:	687a      	ldr	r2, [r7, #4]
10001126:	6852      	ldr	r2, [r2, #4]
10001128:	6811      	ldr	r1, [r2, #0]
1000112a:	687a      	ldr	r2, [r7, #4]
1000112c:	6892      	ldr	r2, [r2, #8]
1000112e:	1c10      	adds	r0, r2, #0
10001130:	2201      	movs	r2, #1
10001132:	4082      	lsls	r2, r0
10001134:	430a      	orrs	r2, r1
10001136:	601a      	str	r2, [r3, #0]
10001138:	46bd      	mov	sp, r7
1000113a:	b002      	add	sp, #8
1000113c:	bd80      	pop	{r7, pc}
1000113e:	46c0      	nop			; (mov r8, r8)

10001140 <_ZN7PinBase3lowEv>:
10001140:	b580      	push	{r7, lr}
10001142:	b082      	sub	sp, #8
10001144:	af00      	add	r7, sp, #0
10001146:	6078      	str	r0, [r7, #4]
10001148:	687b      	ldr	r3, [r7, #4]
1000114a:	685b      	ldr	r3, [r3, #4]
1000114c:	687a      	ldr	r2, [r7, #4]
1000114e:	6852      	ldr	r2, [r2, #4]
10001150:	6811      	ldr	r1, [r2, #0]
10001152:	687a      	ldr	r2, [r7, #4]
10001154:	6892      	ldr	r2, [r2, #8]
10001156:	1c10      	adds	r0, r2, #0
10001158:	2201      	movs	r2, #1
1000115a:	4082      	lsls	r2, r0
1000115c:	43d2      	mvns	r2, r2
1000115e:	400a      	ands	r2, r1
10001160:	601a      	str	r2, [r3, #0]
10001162:	46bd      	mov	sp, r7
10001164:	b002      	add	sp, #8
10001166:	bd80      	pop	{r7, pc}

10001168 <_ZN13ShiftRegisterC1EP13__AccessPoint>:
10001168:	b580      	push	{r7, lr}
1000116a:	b082      	sub	sp, #8
1000116c:	af00      	add	r7, sp, #0
1000116e:	6078      	str	r0, [r7, #4]
10001170:	6039      	str	r1, [r7, #0]
10001172:	687b      	ldr	r3, [r7, #4]
10001174:	4a04      	ldr	r2, [pc, #16]	; (10001188 <_ZN13ShiftRegisterC1EP13__AccessPoint+0x20>)
10001176:	601a      	str	r2, [r3, #0]
10001178:	687b      	ldr	r3, [r7, #4]
1000117a:	683a      	ldr	r2, [r7, #0]
1000117c:	605a      	str	r2, [r3, #4]
1000117e:	687b      	ldr	r3, [r7, #4]
10001180:	1c18      	adds	r0, r3, #0
10001182:	46bd      	mov	sp, r7
10001184:	b002      	add	sp, #8
10001186:	bd80      	pop	{r7, pc}
10001188:	10004768 	.word	0x10004768

1000118c <_ZN13ShiftRegisterC1EP13__AccessPointS1_>:
1000118c:	b580      	push	{r7, lr}
1000118e:	b084      	sub	sp, #16
10001190:	af00      	add	r7, sp, #0
10001192:	60f8      	str	r0, [r7, #12]
10001194:	60b9      	str	r1, [r7, #8]
10001196:	607a      	str	r2, [r7, #4]
10001198:	68fb      	ldr	r3, [r7, #12]
1000119a:	4a06      	ldr	r2, [pc, #24]	; (100011b4 <_ZN13ShiftRegisterC1EP13__AccessPointS1_+0x28>)
1000119c:	601a      	str	r2, [r3, #0]
1000119e:	68fb      	ldr	r3, [r7, #12]
100011a0:	68ba      	ldr	r2, [r7, #8]
100011a2:	605a      	str	r2, [r3, #4]
100011a4:	68fb      	ldr	r3, [r7, #12]
100011a6:	687a      	ldr	r2, [r7, #4]
100011a8:	609a      	str	r2, [r3, #8]
100011aa:	68fb      	ldr	r3, [r7, #12]
100011ac:	1c18      	adds	r0, r3, #0
100011ae:	46bd      	mov	sp, r7
100011b0:	b004      	add	sp, #16
100011b2:	bd80      	pop	{r7, pc}
100011b4:	10004768 	.word	0x10004768

100011b8 <_ZN13ShiftRegisterD1Ev>:
100011b8:	b580      	push	{r7, lr}
100011ba:	b082      	sub	sp, #8
100011bc:	af00      	add	r7, sp, #0
100011be:	6078      	str	r0, [r7, #4]
100011c0:	687b      	ldr	r3, [r7, #4]
100011c2:	4a07      	ldr	r2, [pc, #28]	; (100011e0 <_ZN13ShiftRegisterD1Ev+0x28>)
100011c4:	601a      	str	r2, [r3, #0]
100011c6:	2300      	movs	r3, #0
100011c8:	2b00      	cmp	r3, #0
100011ca:	d003      	beq.n	100011d4 <_ZN13ShiftRegisterD1Ev+0x1c>
100011cc:	687b      	ldr	r3, [r7, #4]
100011ce:	1c18      	adds	r0, r3, #0
100011d0:	f002 ffee 	bl	100041b0 <_ZdlPv>
100011d4:	687b      	ldr	r3, [r7, #4]
100011d6:	1c18      	adds	r0, r3, #0
100011d8:	46bd      	mov	sp, r7
100011da:	b002      	add	sp, #8
100011dc:	bd80      	pop	{r7, pc}
100011de:	46c0      	nop			; (mov r8, r8)
100011e0:	10004768 	.word	0x10004768

100011e4 <_ZN13ShiftRegisterD0Ev>:
100011e4:	b580      	push	{r7, lr}
100011e6:	b082      	sub	sp, #8
100011e8:	af00      	add	r7, sp, #0
100011ea:	6078      	str	r0, [r7, #4]
100011ec:	687b      	ldr	r3, [r7, #4]
100011ee:	1c18      	adds	r0, r3, #0
100011f0:	f7ff ffe2 	bl	100011b8 <_ZN13ShiftRegisterD1Ev>
100011f4:	687b      	ldr	r3, [r7, #4]
100011f6:	1c18      	adds	r0, r3, #0
100011f8:	f002 ffda 	bl	100041b0 <_ZdlPv>
100011fc:	687b      	ldr	r3, [r7, #4]
100011fe:	1c18      	adds	r0, r3, #0
10001200:	46bd      	mov	sp, r7
10001202:	b002      	add	sp, #8
10001204:	bd80      	pop	{r7, pc}
10001206:	46c0      	nop			; (mov r8, r8)

10001208 <_ZN13ShiftRegister4pushEh>:
10001208:	b580      	push	{r7, lr}
1000120a:	b084      	sub	sp, #16
1000120c:	af00      	add	r7, sp, #0
1000120e:	6078      	str	r0, [r7, #4]
10001210:	1c0a      	adds	r2, r1, #0
10001212:	1cfb      	adds	r3, r7, #3
10001214:	701a      	strb	r2, [r3, #0]
10001216:	2300      	movs	r3, #0
10001218:	60fb      	str	r3, [r7, #12]
1000121a:	e014      	b.n	10001246 <_ZN13ShiftRegister4pushEh+0x3e>
1000121c:	687b      	ldr	r3, [r7, #4]
1000121e:	681b      	ldr	r3, [r3, #0]
10001220:	330c      	adds	r3, #12
10001222:	681b      	ldr	r3, [r3, #0]
10001224:	1cfa      	adds	r2, r7, #3
10001226:	7811      	ldrb	r1, [r2, #0]
10001228:	68fa      	ldr	r2, [r7, #12]
1000122a:	4111      	asrs	r1, r2
1000122c:	1c0a      	adds	r2, r1, #0
1000122e:	2101      	movs	r1, #1
10001230:	400a      	ands	r2, r1
10001232:	1e51      	subs	r1, r2, #1
10001234:	418a      	sbcs	r2, r1
10001236:	b2d2      	uxtb	r2, r2
10001238:	6879      	ldr	r1, [r7, #4]
1000123a:	1c08      	adds	r0, r1, #0
1000123c:	1c11      	adds	r1, r2, #0
1000123e:	4798      	blx	r3
10001240:	68fb      	ldr	r3, [r7, #12]
10001242:	3301      	adds	r3, #1
10001244:	60fb      	str	r3, [r7, #12]
10001246:	68fb      	ldr	r3, [r7, #12]
10001248:	2b07      	cmp	r3, #7
1000124a:	dde7      	ble.n	1000121c <_ZN13ShiftRegister4pushEh+0x14>
1000124c:	46bd      	mov	sp, r7
1000124e:	b004      	add	sp, #16
10001250:	bd80      	pop	{r7, pc}
10001252:	46c0      	nop			; (mov r8, r8)

10001254 <_ZN13ShiftRegister4pushEb>:
10001254:	b580      	push	{r7, lr}
10001256:	b082      	sub	sp, #8
10001258:	af00      	add	r7, sp, #0
1000125a:	6078      	str	r0, [r7, #4]
1000125c:	1c0a      	adds	r2, r1, #0
1000125e:	1cfb      	adds	r3, r7, #3
10001260:	701a      	strb	r2, [r3, #0]
10001262:	1cfb      	adds	r3, r7, #3
10001264:	781b      	ldrb	r3, [r3, #0]
10001266:	2b00      	cmp	r3, #0
10001268:	d00f      	beq.n	1000128a <_ZN13ShiftRegister4pushEb+0x36>
1000126a:	687b      	ldr	r3, [r7, #4]
1000126c:	689b      	ldr	r3, [r3, #8]
1000126e:	681b      	ldr	r3, [r3, #0]
10001270:	687a      	ldr	r2, [r7, #4]
10001272:	6892      	ldr	r2, [r2, #8]
10001274:	6812      	ldr	r2, [r2, #0]
10001276:	6811      	ldr	r1, [r2, #0]
10001278:	687a      	ldr	r2, [r7, #4]
1000127a:	6892      	ldr	r2, [r2, #8]
1000127c:	6852      	ldr	r2, [r2, #4]
1000127e:	1c10      	adds	r0, r2, #0
10001280:	2201      	movs	r2, #1
10001282:	4082      	lsls	r2, r0
10001284:	430a      	orrs	r2, r1
10001286:	601a      	str	r2, [r3, #0]
10001288:	e00f      	b.n	100012aa <_ZN13ShiftRegister4pushEb+0x56>
1000128a:	687b      	ldr	r3, [r7, #4]
1000128c:	689b      	ldr	r3, [r3, #8]
1000128e:	681b      	ldr	r3, [r3, #0]
10001290:	687a      	ldr	r2, [r7, #4]
10001292:	6892      	ldr	r2, [r2, #8]
10001294:	6812      	ldr	r2, [r2, #0]
10001296:	6811      	ldr	r1, [r2, #0]
10001298:	687a      	ldr	r2, [r7, #4]
1000129a:	6892      	ldr	r2, [r2, #8]
1000129c:	6852      	ldr	r2, [r2, #4]
1000129e:	1c10      	adds	r0, r2, #0
100012a0:	2201      	movs	r2, #1
100012a2:	4082      	lsls	r2, r0
100012a4:	43d2      	mvns	r2, r2
100012a6:	400a      	ands	r2, r1
100012a8:	601a      	str	r2, [r3, #0]
100012aa:	46bd      	mov	sp, r7
100012ac:	b002      	add	sp, #8
100012ae:	bd80      	pop	{r7, pc}

100012b0 <_ZN13ShiftRegister5cpushEh>:
100012b0:	b580      	push	{r7, lr}
100012b2:	b084      	sub	sp, #16
100012b4:	af00      	add	r7, sp, #0
100012b6:	6078      	str	r0, [r7, #4]
100012b8:	1c0a      	adds	r2, r1, #0
100012ba:	1cfb      	adds	r3, r7, #3
100012bc:	701a      	strb	r2, [r3, #0]
100012be:	2300      	movs	r3, #0
100012c0:	60fb      	str	r3, [r7, #12]
100012c2:	e014      	b.n	100012ee <_ZN13ShiftRegister5cpushEh+0x3e>
100012c4:	687b      	ldr	r3, [r7, #4]
100012c6:	681b      	ldr	r3, [r3, #0]
100012c8:	3314      	adds	r3, #20
100012ca:	681b      	ldr	r3, [r3, #0]
100012cc:	1cfa      	adds	r2, r7, #3
100012ce:	7811      	ldrb	r1, [r2, #0]
100012d0:	68fa      	ldr	r2, [r7, #12]
100012d2:	4111      	asrs	r1, r2
100012d4:	1c0a      	adds	r2, r1, #0
100012d6:	2101      	movs	r1, #1
100012d8:	400a      	ands	r2, r1
100012da:	1e51      	subs	r1, r2, #1
100012dc:	418a      	sbcs	r2, r1
100012de:	b2d2      	uxtb	r2, r2
100012e0:	6879      	ldr	r1, [r7, #4]
100012e2:	1c08      	adds	r0, r1, #0
100012e4:	1c11      	adds	r1, r2, #0
100012e6:	4798      	blx	r3
100012e8:	68fb      	ldr	r3, [r7, #12]
100012ea:	3301      	adds	r3, #1
100012ec:	60fb      	str	r3, [r7, #12]
100012ee:	68fb      	ldr	r3, [r7, #12]
100012f0:	2b07      	cmp	r3, #7
100012f2:	dde7      	ble.n	100012c4 <_ZN13ShiftRegister5cpushEh+0x14>
100012f4:	46bd      	mov	sp, r7
100012f6:	b004      	add	sp, #16
100012f8:	bd80      	pop	{r7, pc}
100012fa:	46c0      	nop			; (mov r8, r8)

100012fc <_ZN13ShiftRegister5cpushEb>:
100012fc:	b580      	push	{r7, lr}
100012fe:	b082      	sub	sp, #8
10001300:	af00      	add	r7, sp, #0
10001302:	6078      	str	r0, [r7, #4]
10001304:	1c0a      	adds	r2, r1, #0
10001306:	1cfb      	adds	r3, r7, #3
10001308:	701a      	strb	r2, [r3, #0]
1000130a:	687b      	ldr	r3, [r7, #4]
1000130c:	1c18      	adds	r0, r3, #0
1000130e:	f000 f831 	bl	10001374 <_ZN13ShiftRegister6clkLowEv>
10001312:	687b      	ldr	r3, [r7, #4]
10001314:	681b      	ldr	r3, [r3, #0]
10001316:	330c      	adds	r3, #12
10001318:	681b      	ldr	r3, [r3, #0]
1000131a:	6879      	ldr	r1, [r7, #4]
1000131c:	1cfa      	adds	r2, r7, #3
1000131e:	7812      	ldrb	r2, [r2, #0]
10001320:	1c08      	adds	r0, r1, #0
10001322:	1c11      	adds	r1, r2, #0
10001324:	4798      	blx	r3
10001326:	687b      	ldr	r3, [r7, #4]
10001328:	1c18      	adds	r0, r3, #0
1000132a:	f000 f803 	bl	10001334 <_ZN13ShiftRegister7clkHighEv>
1000132e:	46bd      	mov	sp, r7
10001330:	b002      	add	sp, #8
10001332:	bd80      	pop	{r7, pc}

10001334 <_ZN13ShiftRegister7clkHighEv>:
10001334:	b580      	push	{r7, lr}
10001336:	b082      	sub	sp, #8
10001338:	af00      	add	r7, sp, #0
1000133a:	6078      	str	r0, [r7, #4]
1000133c:	687b      	ldr	r3, [r7, #4]
1000133e:	1c18      	adds	r0, r3, #0
10001340:	2100      	movs	r1, #0
10001342:	f000 f839 	bl	100013b8 <_ZN13ShiftRegister5delayEj>
10001346:	687b      	ldr	r3, [r7, #4]
10001348:	685b      	ldr	r3, [r3, #4]
1000134a:	681b      	ldr	r3, [r3, #0]
1000134c:	687a      	ldr	r2, [r7, #4]
1000134e:	6852      	ldr	r2, [r2, #4]
10001350:	6812      	ldr	r2, [r2, #0]
10001352:	6811      	ldr	r1, [r2, #0]
10001354:	687a      	ldr	r2, [r7, #4]
10001356:	6852      	ldr	r2, [r2, #4]
10001358:	6852      	ldr	r2, [r2, #4]
1000135a:	1c10      	adds	r0, r2, #0
1000135c:	2201      	movs	r2, #1
1000135e:	4082      	lsls	r2, r0
10001360:	430a      	orrs	r2, r1
10001362:	601a      	str	r2, [r3, #0]
10001364:	687b      	ldr	r3, [r7, #4]
10001366:	1c18      	adds	r0, r3, #0
10001368:	2100      	movs	r1, #0
1000136a:	f000 f825 	bl	100013b8 <_ZN13ShiftRegister5delayEj>
1000136e:	46bd      	mov	sp, r7
10001370:	b002      	add	sp, #8
10001372:	bd80      	pop	{r7, pc}

10001374 <_ZN13ShiftRegister6clkLowEv>:
10001374:	b580      	push	{r7, lr}
10001376:	b082      	sub	sp, #8
10001378:	af00      	add	r7, sp, #0
1000137a:	6078      	str	r0, [r7, #4]
1000137c:	687b      	ldr	r3, [r7, #4]
1000137e:	1c18      	adds	r0, r3, #0
10001380:	2100      	movs	r1, #0
10001382:	f000 f819 	bl	100013b8 <_ZN13ShiftRegister5delayEj>
10001386:	687b      	ldr	r3, [r7, #4]
10001388:	685b      	ldr	r3, [r3, #4]
1000138a:	681b      	ldr	r3, [r3, #0]
1000138c:	687a      	ldr	r2, [r7, #4]
1000138e:	6852      	ldr	r2, [r2, #4]
10001390:	6812      	ldr	r2, [r2, #0]
10001392:	6811      	ldr	r1, [r2, #0]
10001394:	687a      	ldr	r2, [r7, #4]
10001396:	6852      	ldr	r2, [r2, #4]
10001398:	6852      	ldr	r2, [r2, #4]
1000139a:	1c10      	adds	r0, r2, #0
1000139c:	2201      	movs	r2, #1
1000139e:	4082      	lsls	r2, r0
100013a0:	43d2      	mvns	r2, r2
100013a2:	400a      	ands	r2, r1
100013a4:	601a      	str	r2, [r3, #0]
100013a6:	687b      	ldr	r3, [r7, #4]
100013a8:	1c18      	adds	r0, r3, #0
100013aa:	2100      	movs	r1, #0
100013ac:	f000 f804 	bl	100013b8 <_ZN13ShiftRegister5delayEj>
100013b0:	46bd      	mov	sp, r7
100013b2:	b002      	add	sp, #8
100013b4:	bd80      	pop	{r7, pc}
100013b6:	46c0      	nop			; (mov r8, r8)

100013b8 <_ZN13ShiftRegister5delayEj>:
100013b8:	b580      	push	{r7, lr}
100013ba:	b082      	sub	sp, #8
100013bc:	af00      	add	r7, sp, #0
100013be:	6078      	str	r0, [r7, #4]
100013c0:	6039      	str	r1, [r7, #0]
100013c2:	683b      	ldr	r3, [r7, #0]
100013c4:	1e5a      	subs	r2, r3, #1
100013c6:	603a      	str	r2, [r7, #0]
100013c8:	1e5a      	subs	r2, r3, #1
100013ca:	4193      	sbcs	r3, r2
100013cc:	b2db      	uxtb	r3, r3
100013ce:	2b00      	cmp	r3, #0
100013d0:	d1f7      	bne.n	100013c2 <_ZN13ShiftRegister5delayEj+0xa>
100013d2:	46bd      	mov	sp, r7
100013d4:	b002      	add	sp, #8
100013d6:	bd80      	pop	{r7, pc}

100013d8 <_ZnwjPv>:
100013d8:	b580      	push	{r7, lr}
100013da:	b082      	sub	sp, #8
100013dc:	af00      	add	r7, sp, #0
100013de:	6078      	str	r0, [r7, #4]
100013e0:	6039      	str	r1, [r7, #0]
100013e2:	683b      	ldr	r3, [r7, #0]
100013e4:	1c18      	adds	r0, r3, #0
100013e6:	46bd      	mov	sp, r7
100013e8:	b002      	add	sp, #8
100013ea:	bd80      	pop	{r7, pc}

100013ec <_ZN18ShiftRegisterArrayC1EP13__AccessPoint>:
100013ec:	b580      	push	{r7, lr}
100013ee:	b082      	sub	sp, #8
100013f0:	af00      	add	r7, sp, #0
100013f2:	6078      	str	r0, [r7, #4]
100013f4:	6039      	str	r1, [r7, #0]
100013f6:	687a      	ldr	r2, [r7, #4]
100013f8:	683b      	ldr	r3, [r7, #0]
100013fa:	1c10      	adds	r0, r2, #0
100013fc:	1c19      	adds	r1, r3, #0
100013fe:	f7ff feb3 	bl	10001168 <_ZN13ShiftRegisterC1EP13__AccessPoint>
10001402:	687b      	ldr	r3, [r7, #4]
10001404:	4a05      	ldr	r2, [pc, #20]	; (1000141c <_ZN18ShiftRegisterArrayC1EP13__AccessPoint+0x30>)
10001406:	601a      	str	r2, [r3, #0]
10001408:	687b      	ldr	r3, [r7, #4]
1000140a:	330c      	adds	r3, #12
1000140c:	1c18      	adds	r0, r3, #0
1000140e:	f000 f8a7 	bl	10001560 <_ZNSt6vectorIP13ShiftRegisterSaIS1_EEC1Ev>
10001412:	687b      	ldr	r3, [r7, #4]
10001414:	1c18      	adds	r0, r3, #0
10001416:	46bd      	mov	sp, r7
10001418:	b002      	add	sp, #8
1000141a:	bd80      	pop	{r7, pc}
1000141c:	100047a0 	.word	0x100047a0

10001420 <_ZN18ShiftRegisterArrayD1Ev>:
10001420:	b580      	push	{r7, lr}
10001422:	b082      	sub	sp, #8
10001424:	af00      	add	r7, sp, #0
10001426:	6078      	str	r0, [r7, #4]
10001428:	687b      	ldr	r3, [r7, #4]
1000142a:	4a0b      	ldr	r2, [pc, #44]	; (10001458 <_ZN18ShiftRegisterArrayD1Ev+0x38>)
1000142c:	601a      	str	r2, [r3, #0]
1000142e:	687b      	ldr	r3, [r7, #4]
10001430:	330c      	adds	r3, #12
10001432:	1c18      	adds	r0, r3, #0
10001434:	f000 f8a2 	bl	1000157c <_ZNSt6vectorIP13ShiftRegisterSaIS1_EED1Ev>
10001438:	687b      	ldr	r3, [r7, #4]
1000143a:	1c18      	adds	r0, r3, #0
1000143c:	f7ff febc 	bl	100011b8 <_ZN13ShiftRegisterD1Ev>
10001440:	2300      	movs	r3, #0
10001442:	2b00      	cmp	r3, #0
10001444:	d003      	beq.n	1000144e <_ZN18ShiftRegisterArrayD1Ev+0x2e>
10001446:	687b      	ldr	r3, [r7, #4]
10001448:	1c18      	adds	r0, r3, #0
1000144a:	f002 feb1 	bl	100041b0 <_ZdlPv>
1000144e:	687b      	ldr	r3, [r7, #4]
10001450:	1c18      	adds	r0, r3, #0
10001452:	46bd      	mov	sp, r7
10001454:	b002      	add	sp, #8
10001456:	bd80      	pop	{r7, pc}
10001458:	100047a0 	.word	0x100047a0

1000145c <_ZN18ShiftRegisterArrayD0Ev>:
1000145c:	b580      	push	{r7, lr}
1000145e:	b082      	sub	sp, #8
10001460:	af00      	add	r7, sp, #0
10001462:	6078      	str	r0, [r7, #4]
10001464:	687b      	ldr	r3, [r7, #4]
10001466:	1c18      	adds	r0, r3, #0
10001468:	f7ff ffda 	bl	10001420 <_ZN18ShiftRegisterArrayD1Ev>
1000146c:	687b      	ldr	r3, [r7, #4]
1000146e:	1c18      	adds	r0, r3, #0
10001470:	f002 fe9e 	bl	100041b0 <_ZdlPv>
10001474:	687b      	ldr	r3, [r7, #4]
10001476:	1c18      	adds	r0, r3, #0
10001478:	46bd      	mov	sp, r7
1000147a:	b002      	add	sp, #8
1000147c:	bd80      	pop	{r7, pc}
1000147e:	46c0      	nop			; (mov r8, r8)

10001480 <_ZN18ShiftRegisterArray4pushEPh>:
10001480:	b580      	push	{r7, lr}
10001482:	b084      	sub	sp, #16
10001484:	af00      	add	r7, sp, #0
10001486:	6078      	str	r0, [r7, #4]
10001488:	6039      	str	r1, [r7, #0]
1000148a:	2300      	movs	r3, #0
1000148c:	60fb      	str	r3, [r7, #12]
1000148e:	e039      	b.n	10001504 <_ZN18ShiftRegisterArray4pushEPh+0x84>
10001490:	687b      	ldr	r3, [r7, #4]
10001492:	1c18      	adds	r0, r3, #0
10001494:	f7ff ff6e 	bl	10001374 <_ZN13ShiftRegister6clkLowEv>
10001498:	2300      	movs	r3, #0
1000149a:	60bb      	str	r3, [r7, #8]
1000149c:	e01e      	b.n	100014dc <_ZN18ShiftRegisterArray4pushEPh+0x5c>
1000149e:	687b      	ldr	r3, [r7, #4]
100014a0:	330c      	adds	r3, #12
100014a2:	1c1a      	adds	r2, r3, #0
100014a4:	68bb      	ldr	r3, [r7, #8]
100014a6:	1c10      	adds	r0, r2, #0
100014a8:	1c19      	adds	r1, r3, #0
100014aa:	f000 f893 	bl	100015d4 <_ZNSt6vectorIP13ShiftRegisterSaIS1_EEixEj>
100014ae:	1c03      	adds	r3, r0, #0
100014b0:	681b      	ldr	r3, [r3, #0]
100014b2:	681a      	ldr	r2, [r3, #0]
100014b4:	320c      	adds	r2, #12
100014b6:	6812      	ldr	r2, [r2, #0]
100014b8:	6838      	ldr	r0, [r7, #0]
100014ba:	68b9      	ldr	r1, [r7, #8]
100014bc:	1841      	adds	r1, r0, r1
100014be:	7809      	ldrb	r1, [r1, #0]
100014c0:	1c08      	adds	r0, r1, #0
100014c2:	68f9      	ldr	r1, [r7, #12]
100014c4:	4108      	asrs	r0, r1
100014c6:	1c01      	adds	r1, r0, #0
100014c8:	2001      	movs	r0, #1
100014ca:	4001      	ands	r1, r0
100014cc:	1e48      	subs	r0, r1, #1
100014ce:	4181      	sbcs	r1, r0
100014d0:	b2c9      	uxtb	r1, r1
100014d2:	1c18      	adds	r0, r3, #0
100014d4:	4790      	blx	r2
100014d6:	68bb      	ldr	r3, [r7, #8]
100014d8:	3301      	adds	r3, #1
100014da:	60bb      	str	r3, [r7, #8]
100014dc:	687b      	ldr	r3, [r7, #4]
100014de:	330c      	adds	r3, #12
100014e0:	1c18      	adds	r0, r3, #0
100014e2:	f000 f867 	bl	100015b4 <_ZNKSt6vectorIP13ShiftRegisterSaIS1_EE4sizeEv>
100014e6:	1c02      	adds	r2, r0, #0
100014e8:	68bb      	ldr	r3, [r7, #8]
100014ea:	4293      	cmp	r3, r2
100014ec:	419b      	sbcs	r3, r3
100014ee:	425b      	negs	r3, r3
100014f0:	b2db      	uxtb	r3, r3
100014f2:	2b00      	cmp	r3, #0
100014f4:	d1d3      	bne.n	1000149e <_ZN18ShiftRegisterArray4pushEPh+0x1e>
100014f6:	687b      	ldr	r3, [r7, #4]
100014f8:	1c18      	adds	r0, r3, #0
100014fa:	f7ff ff1b 	bl	10001334 <_ZN13ShiftRegister7clkHighEv>
100014fe:	68fb      	ldr	r3, [r7, #12]
10001500:	3301      	adds	r3, #1
10001502:	60fb      	str	r3, [r7, #12]
10001504:	68fb      	ldr	r3, [r7, #12]
10001506:	2b07      	cmp	r3, #7
10001508:	ddc2      	ble.n	10001490 <_ZN18ShiftRegisterArray4pushEPh+0x10>
1000150a:	46bd      	mov	sp, r7
1000150c:	b004      	add	sp, #16
1000150e:	bd80      	pop	{r7, pc}

10001510 <_ZN18ShiftRegisterArray16addShiftRegisterEP13ShiftRegister>:
10001510:	b580      	push	{r7, lr}
10001512:	b082      	sub	sp, #8
10001514:	af00      	add	r7, sp, #0
10001516:	6078      	str	r0, [r7, #4]
10001518:	6039      	str	r1, [r7, #0]
1000151a:	687b      	ldr	r3, [r7, #4]
1000151c:	330c      	adds	r3, #12
1000151e:	1c1a      	adds	r2, r3, #0
10001520:	1c3b      	adds	r3, r7, #0
10001522:	1c10      	adds	r0, r2, #0
10001524:	1c19      	adds	r1, r3, #0
10001526:	f000 f863 	bl	100015f0 <_ZNSt6vectorIP13ShiftRegisterSaIS1_EE9push_backERKS1_>
1000152a:	46bd      	mov	sp, r7
1000152c:	b002      	add	sp, #8
1000152e:	bd80      	pop	{r7, pc}

10001530 <_ZN18ShiftRegisterArray5beginEv>:
10001530:	b580      	push	{r7, lr}
10001532:	b082      	sub	sp, #8
10001534:	af00      	add	r7, sp, #0
10001536:	6078      	str	r0, [r7, #4]
10001538:	687b      	ldr	r3, [r7, #4]
1000153a:	1c18      	adds	r0, r3, #0
1000153c:	f7ff ff1a 	bl	10001374 <_ZN13ShiftRegister6clkLowEv>
10001540:	46bd      	mov	sp, r7
10001542:	b002      	add	sp, #8
10001544:	bd80      	pop	{r7, pc}
10001546:	46c0      	nop			; (mov r8, r8)

10001548 <_ZN18ShiftRegisterArray3endEv>:
10001548:	b580      	push	{r7, lr}
1000154a:	b082      	sub	sp, #8
1000154c:	af00      	add	r7, sp, #0
1000154e:	6078      	str	r0, [r7, #4]
10001550:	687b      	ldr	r3, [r7, #4]
10001552:	1c18      	adds	r0, r3, #0
10001554:	f7ff feee 	bl	10001334 <_ZN13ShiftRegister7clkHighEv>
10001558:	46bd      	mov	sp, r7
1000155a:	b002      	add	sp, #8
1000155c:	bd80      	pop	{r7, pc}
1000155e:	46c0      	nop			; (mov r8, r8)

10001560 <_ZNSt6vectorIP13ShiftRegisterSaIS1_EEC1Ev>:
10001560:	b580      	push	{r7, lr}
10001562:	b082      	sub	sp, #8
10001564:	af00      	add	r7, sp, #0
10001566:	6078      	str	r0, [r7, #4]
10001568:	687b      	ldr	r3, [r7, #4]
1000156a:	1c18      	adds	r0, r3, #0
1000156c:	f000 f876 	bl	1000165c <_ZNSt12_Vector_baseIP13ShiftRegisterSaIS1_EEC1Ev>
10001570:	687b      	ldr	r3, [r7, #4]
10001572:	1c18      	adds	r0, r3, #0
10001574:	46bd      	mov	sp, r7
10001576:	b002      	add	sp, #8
10001578:	bd80      	pop	{r7, pc}
1000157a:	46c0      	nop			; (mov r8, r8)

1000157c <_ZNSt6vectorIP13ShiftRegisterSaIS1_EED1Ev>:
1000157c:	b5b0      	push	{r4, r5, r7, lr}
1000157e:	b082      	sub	sp, #8
10001580:	af00      	add	r7, sp, #0
10001582:	6078      	str	r0, [r7, #4]
10001584:	687b      	ldr	r3, [r7, #4]
10001586:	681d      	ldr	r5, [r3, #0]
10001588:	687b      	ldr	r3, [r7, #4]
1000158a:	685c      	ldr	r4, [r3, #4]
1000158c:	687b      	ldr	r3, [r7, #4]
1000158e:	1c18      	adds	r0, r3, #0
10001590:	f000 f890 	bl	100016b4 <_ZNSt12_Vector_baseIP13ShiftRegisterSaIS1_EE19_M_get_Tp_allocatorEv>
10001594:	1c03      	adds	r3, r0, #0
10001596:	1c28      	adds	r0, r5, #0
10001598:	1c21      	adds	r1, r4, #0
1000159a:	1c1a      	adds	r2, r3, #0
1000159c:	f000 f894 	bl	100016c8 <_ZSt8_DestroyIPP13ShiftRegisterS1_EvT_S3_RSaIT0_E>
100015a0:	687b      	ldr	r3, [r7, #4]
100015a2:	1c18      	adds	r0, r3, #0
100015a4:	f000 f868 	bl	10001678 <_ZNSt12_Vector_baseIP13ShiftRegisterSaIS1_EED1Ev>
100015a8:	687b      	ldr	r3, [r7, #4]
100015aa:	1c18      	adds	r0, r3, #0
100015ac:	46bd      	mov	sp, r7
100015ae:	b002      	add	sp, #8
100015b0:	bdb0      	pop	{r4, r5, r7, pc}
100015b2:	46c0      	nop			; (mov r8, r8)

100015b4 <_ZNKSt6vectorIP13ShiftRegisterSaIS1_EE4sizeEv>:
100015b4:	b580      	push	{r7, lr}
100015b6:	b082      	sub	sp, #8
100015b8:	af00      	add	r7, sp, #0
100015ba:	6078      	str	r0, [r7, #4]
100015bc:	687b      	ldr	r3, [r7, #4]
100015be:	685b      	ldr	r3, [r3, #4]
100015c0:	1c1a      	adds	r2, r3, #0
100015c2:	687b      	ldr	r3, [r7, #4]
100015c4:	681b      	ldr	r3, [r3, #0]
100015c6:	1ad3      	subs	r3, r2, r3
100015c8:	109b      	asrs	r3, r3, #2
100015ca:	1c18      	adds	r0, r3, #0
100015cc:	46bd      	mov	sp, r7
100015ce:	b002      	add	sp, #8
100015d0:	bd80      	pop	{r7, pc}
100015d2:	46c0      	nop			; (mov r8, r8)

100015d4 <_ZNSt6vectorIP13ShiftRegisterSaIS1_EEixEj>:
100015d4:	b580      	push	{r7, lr}
100015d6:	b082      	sub	sp, #8
100015d8:	af00      	add	r7, sp, #0
100015da:	6078      	str	r0, [r7, #4]
100015dc:	6039      	str	r1, [r7, #0]
100015de:	687b      	ldr	r3, [r7, #4]
100015e0:	681a      	ldr	r2, [r3, #0]
100015e2:	683b      	ldr	r3, [r7, #0]
100015e4:	009b      	lsls	r3, r3, #2
100015e6:	18d3      	adds	r3, r2, r3
100015e8:	1c18      	adds	r0, r3, #0
100015ea:	46bd      	mov	sp, r7
100015ec:	b002      	add	sp, #8
100015ee:	bd80      	pop	{r7, pc}

100015f0 <_ZNSt6vectorIP13ShiftRegisterSaIS1_EE9push_backERKS1_>:
100015f0:	b580      	push	{r7, lr}
100015f2:	b082      	sub	sp, #8
100015f4:	af00      	add	r7, sp, #0
100015f6:	6078      	str	r0, [r7, #4]
100015f8:	6039      	str	r1, [r7, #0]
100015fa:	687b      	ldr	r3, [r7, #4]
100015fc:	685a      	ldr	r2, [r3, #4]
100015fe:	687b      	ldr	r3, [r7, #4]
10001600:	689b      	ldr	r3, [r3, #8]
10001602:	429a      	cmp	r2, r3
10001604:	d00e      	beq.n	10001624 <_ZNSt6vectorIP13ShiftRegisterSaIS1_EE9push_backERKS1_+0x34>
10001606:	6879      	ldr	r1, [r7, #4]
10001608:	687b      	ldr	r3, [r7, #4]
1000160a:	685a      	ldr	r2, [r3, #4]
1000160c:	683b      	ldr	r3, [r7, #0]
1000160e:	1c08      	adds	r0, r1, #0
10001610:	1c11      	adds	r1, r2, #0
10001612:	1c1a      	adds	r2, r3, #0
10001614:	f000 f868 	bl	100016e8 <_ZN9__gnu_cxx14__alloc_traitsISaIP13ShiftRegisterEE9constructIS2_EEvRS3_PS2_RKT_>
10001618:	687b      	ldr	r3, [r7, #4]
1000161a:	685b      	ldr	r3, [r3, #4]
1000161c:	1d1a      	adds	r2, r3, #4
1000161e:	687b      	ldr	r3, [r7, #4]
10001620:	605a      	str	r2, [r3, #4]
10001622:	e00a      	b.n	1000163a <_ZNSt6vectorIP13ShiftRegisterSaIS1_EE9push_backERKS1_+0x4a>
10001624:	687b      	ldr	r3, [r7, #4]
10001626:	1c18      	adds	r0, r3, #0
10001628:	f000 f93a 	bl	100018a0 <_ZNSt6vectorIP13ShiftRegisterSaIS1_EE3endEv>
1000162c:	1c01      	adds	r1, r0, #0
1000162e:	687a      	ldr	r2, [r7, #4]
10001630:	683b      	ldr	r3, [r7, #0]
10001632:	1c10      	adds	r0, r2, #0
10001634:	1c1a      	adds	r2, r3, #0
10001636:	f000 f869 	bl	1000170c <_ZNSt6vectorIP13ShiftRegisterSaIS1_EE13_M_insert_auxEN9__gnu_cxx17__normal_iteratorIPS1_S3_EERKS1_>
1000163a:	46bd      	mov	sp, r7
1000163c:	b002      	add	sp, #8
1000163e:	bd80      	pop	{r7, pc}

10001640 <_ZNSt12_Vector_baseIP13ShiftRegisterSaIS1_EE12_Vector_implD1Ev>:
10001640:	b580      	push	{r7, lr}
10001642:	b082      	sub	sp, #8
10001644:	af00      	add	r7, sp, #0
10001646:	6078      	str	r0, [r7, #4]
10001648:	687b      	ldr	r3, [r7, #4]
1000164a:	1c18      	adds	r0, r3, #0
1000164c:	f000 f950 	bl	100018f0 <_ZNSaIP13ShiftRegisterED1Ev>
10001650:	687b      	ldr	r3, [r7, #4]
10001652:	1c18      	adds	r0, r3, #0
10001654:	46bd      	mov	sp, r7
10001656:	b002      	add	sp, #8
10001658:	bd80      	pop	{r7, pc}
1000165a:	46c0      	nop			; (mov r8, r8)

1000165c <_ZNSt12_Vector_baseIP13ShiftRegisterSaIS1_EEC1Ev>:
1000165c:	b580      	push	{r7, lr}
1000165e:	b082      	sub	sp, #8
10001660:	af00      	add	r7, sp, #0
10001662:	6078      	str	r0, [r7, #4]
10001664:	687b      	ldr	r3, [r7, #4]
10001666:	1c18      	adds	r0, r3, #0
10001668:	f000 f92c 	bl	100018c4 <_ZNSt12_Vector_baseIP13ShiftRegisterSaIS1_EE12_Vector_implC1Ev>
1000166c:	687b      	ldr	r3, [r7, #4]
1000166e:	1c18      	adds	r0, r3, #0
10001670:	46bd      	mov	sp, r7
10001672:	b002      	add	sp, #8
10001674:	bd80      	pop	{r7, pc}
10001676:	46c0      	nop			; (mov r8, r8)

10001678 <_ZNSt12_Vector_baseIP13ShiftRegisterSaIS1_EED1Ev>:
10001678:	b590      	push	{r4, r7, lr}
1000167a:	b083      	sub	sp, #12
1000167c:	af00      	add	r7, sp, #0
1000167e:	6078      	str	r0, [r7, #4]
10001680:	687b      	ldr	r3, [r7, #4]
10001682:	681a      	ldr	r2, [r3, #0]
10001684:	687b      	ldr	r3, [r7, #4]
10001686:	689b      	ldr	r3, [r3, #8]
10001688:	1c19      	adds	r1, r3, #0
1000168a:	687b      	ldr	r3, [r7, #4]
1000168c:	681b      	ldr	r3, [r3, #0]
1000168e:	1acb      	subs	r3, r1, r3
10001690:	109b      	asrs	r3, r3, #2
10001692:	1c1c      	adds	r4, r3, #0
10001694:	687b      	ldr	r3, [r7, #4]
10001696:	1c18      	adds	r0, r3, #0
10001698:	1c11      	adds	r1, r2, #0
1000169a:	1c22      	adds	r2, r4, #0
1000169c:	f000 f936 	bl	1000190c <_ZNSt12_Vector_baseIP13ShiftRegisterSaIS1_EE13_M_deallocateEPS1_j>
100016a0:	687b      	ldr	r3, [r7, #4]
100016a2:	1c18      	adds	r0, r3, #0
100016a4:	f7ff ffcc 	bl	10001640 <_ZNSt12_Vector_baseIP13ShiftRegisterSaIS1_EE12_Vector_implD1Ev>
100016a8:	687b      	ldr	r3, [r7, #4]
100016aa:	1c18      	adds	r0, r3, #0
100016ac:	46bd      	mov	sp, r7
100016ae:	b003      	add	sp, #12
100016b0:	bd90      	pop	{r4, r7, pc}
100016b2:	46c0      	nop			; (mov r8, r8)

100016b4 <_ZNSt12_Vector_baseIP13ShiftRegisterSaIS1_EE19_M_get_Tp_allocatorEv>:
100016b4:	b580      	push	{r7, lr}
100016b6:	b082      	sub	sp, #8
100016b8:	af00      	add	r7, sp, #0
100016ba:	6078      	str	r0, [r7, #4]
100016bc:	687b      	ldr	r3, [r7, #4]
100016be:	1c18      	adds	r0, r3, #0
100016c0:	46bd      	mov	sp, r7
100016c2:	b002      	add	sp, #8
100016c4:	bd80      	pop	{r7, pc}
100016c6:	46c0      	nop			; (mov r8, r8)

100016c8 <_ZSt8_DestroyIPP13ShiftRegisterS1_EvT_S3_RSaIT0_E>:
100016c8:	b580      	push	{r7, lr}
100016ca:	b084      	sub	sp, #16
100016cc:	af00      	add	r7, sp, #0
100016ce:	60f8      	str	r0, [r7, #12]
100016d0:	60b9      	str	r1, [r7, #8]
100016d2:	607a      	str	r2, [r7, #4]
100016d4:	68fa      	ldr	r2, [r7, #12]
100016d6:	68bb      	ldr	r3, [r7, #8]
100016d8:	1c10      	adds	r0, r2, #0
100016da:	1c19      	adds	r1, r3, #0
100016dc:	f000 f92a 	bl	10001934 <_ZSt8_DestroyIPP13ShiftRegisterEvT_S3_>
100016e0:	46bd      	mov	sp, r7
100016e2:	b004      	add	sp, #16
100016e4:	bd80      	pop	{r7, pc}
100016e6:	46c0      	nop			; (mov r8, r8)

100016e8 <_ZN9__gnu_cxx14__alloc_traitsISaIP13ShiftRegisterEE9constructIS2_EEvRS3_PS2_RKT_>:
100016e8:	b580      	push	{r7, lr}
100016ea:	b084      	sub	sp, #16
100016ec:	af00      	add	r7, sp, #0
100016ee:	60f8      	str	r0, [r7, #12]
100016f0:	60b9      	str	r1, [r7, #8]
100016f2:	607a      	str	r2, [r7, #4]
100016f4:	68f9      	ldr	r1, [r7, #12]
100016f6:	68ba      	ldr	r2, [r7, #8]
100016f8:	687b      	ldr	r3, [r7, #4]
100016fa:	1c08      	adds	r0, r1, #0
100016fc:	1c11      	adds	r1, r2, #0
100016fe:	1c1a      	adds	r2, r3, #0
10001700:	f000 f926 	bl	10001950 <_ZN9__gnu_cxx13new_allocatorIP13ShiftRegisterE9constructEPS2_RKS2_>
10001704:	46bd      	mov	sp, r7
10001706:	b004      	add	sp, #16
10001708:	bd80      	pop	{r7, pc}
1000170a:	46c0      	nop			; (mov r8, r8)

1000170c <_ZNSt6vectorIP13ShiftRegisterSaIS1_EE13_M_insert_auxEN9__gnu_cxx17__normal_iteratorIPS1_S3_EERKS1_>:
1000170c:	b5f0      	push	{r4, r5, r6, r7, lr}
1000170e:	b08b      	sub	sp, #44	; 0x2c
10001710:	af00      	add	r7, sp, #0
10001712:	60f8      	str	r0, [r7, #12]
10001714:	60b9      	str	r1, [r7, #8]
10001716:	607a      	str	r2, [r7, #4]
10001718:	68fb      	ldr	r3, [r7, #12]
1000171a:	685a      	ldr	r2, [r3, #4]
1000171c:	68fb      	ldr	r3, [r7, #12]
1000171e:	689b      	ldr	r3, [r3, #8]
10001720:	429a      	cmp	r2, r3
10001722:	d02e      	beq.n	10001782 <_ZNSt6vectorIP13ShiftRegisterSaIS1_EE13_M_insert_auxEN9__gnu_cxx17__normal_iteratorIPS1_S3_EERKS1_+0x76>
10001724:	68f9      	ldr	r1, [r7, #12]
10001726:	68fb      	ldr	r3, [r7, #12]
10001728:	685a      	ldr	r2, [r3, #4]
1000172a:	68fb      	ldr	r3, [r7, #12]
1000172c:	685b      	ldr	r3, [r3, #4]
1000172e:	3b04      	subs	r3, #4
10001730:	1c08      	adds	r0, r1, #0
10001732:	1c11      	adds	r1, r2, #0
10001734:	1c1a      	adds	r2, r3, #0
10001736:	f7ff ffd7 	bl	100016e8 <_ZN9__gnu_cxx14__alloc_traitsISaIP13ShiftRegisterEE9constructIS2_EEvRS3_PS2_RKT_>
1000173a:	68fb      	ldr	r3, [r7, #12]
1000173c:	685b      	ldr	r3, [r3, #4]
1000173e:	1d1a      	adds	r2, r3, #4
10001740:	68fb      	ldr	r3, [r7, #12]
10001742:	605a      	str	r2, [r3, #4]
10001744:	687b      	ldr	r3, [r7, #4]
10001746:	681b      	ldr	r3, [r3, #0]
10001748:	627b      	str	r3, [r7, #36]	; 0x24
1000174a:	2308      	movs	r3, #8
1000174c:	18fb      	adds	r3, r7, r3
1000174e:	1c18      	adds	r0, r3, #0
10001750:	f000 f912 	bl	10001978 <_ZNK9__gnu_cxx17__normal_iteratorIPP13ShiftRegisterSt6vectorIS2_SaIS2_EEE4baseEv>
10001754:	1c03      	adds	r3, r0, #0
10001756:	6819      	ldr	r1, [r3, #0]
10001758:	68fb      	ldr	r3, [r7, #12]
1000175a:	685b      	ldr	r3, [r3, #4]
1000175c:	3b08      	subs	r3, #8
1000175e:	1c1a      	adds	r2, r3, #0
10001760:	68fb      	ldr	r3, [r7, #12]
10001762:	685b      	ldr	r3, [r3, #4]
10001764:	3b04      	subs	r3, #4
10001766:	1c08      	adds	r0, r1, #0
10001768:	1c11      	adds	r1, r2, #0
1000176a:	1c1a      	adds	r2, r3, #0
1000176c:	f000 f90e 	bl	1000198c <_ZSt13copy_backwardIPP13ShiftRegisterS2_ET0_T_S4_S3_>
10001770:	2308      	movs	r3, #8
10001772:	18fb      	adds	r3, r7, r3
10001774:	1c18      	adds	r0, r3, #0
10001776:	f000 f925 	bl	100019c4 <_ZNK9__gnu_cxx17__normal_iteratorIPP13ShiftRegisterSt6vectorIS2_SaIS2_EEEdeEv>
1000177a:	1c03      	adds	r3, r0, #0
1000177c:	6a7a      	ldr	r2, [r7, #36]	; 0x24
1000177e:	601a      	str	r2, [r3, #0]
10001780:	e089      	b.n	10001896 <_ZNSt6vectorIP13ShiftRegisterSaIS1_EE13_M_insert_auxEN9__gnu_cxx17__normal_iteratorIPS1_S3_EERKS1_+0x18a>
10001782:	68fa      	ldr	r2, [r7, #12]
10001784:	4b45      	ldr	r3, [pc, #276]	; (1000189c <_ZNSt6vectorIP13ShiftRegisterSaIS1_EE13_M_insert_auxEN9__gnu_cxx17__normal_iteratorIPS1_S3_EERKS1_+0x190>)
10001786:	1c10      	adds	r0, r2, #0
10001788:	2101      	movs	r1, #1
1000178a:	1c1a      	adds	r2, r3, #0
1000178c:	f000 f924 	bl	100019d8 <_ZNKSt6vectorIP13ShiftRegisterSaIS1_EE12_M_check_lenEjPKc>
10001790:	1c03      	adds	r3, r0, #0
10001792:	623b      	str	r3, [r7, #32]
10001794:	68fb      	ldr	r3, [r7, #12]
10001796:	1c18      	adds	r0, r3, #0
10001798:	f000 f96c 	bl	10001a74 <_ZNSt6vectorIP13ShiftRegisterSaIS1_EE5beginEv>
1000179c:	1c03      	adds	r3, r0, #0
1000179e:	613b      	str	r3, [r7, #16]
100017a0:	2308      	movs	r3, #8
100017a2:	18fa      	adds	r2, r7, r3
100017a4:	2310      	movs	r3, #16
100017a6:	18fb      	adds	r3, r7, r3
100017a8:	1c10      	adds	r0, r2, #0
100017aa:	1c19      	adds	r1, r3, #0
100017ac:	f000 f972 	bl	10001a94 <_ZN9__gnu_cxxmiIPP13ShiftRegisterSt6vectorIS2_SaIS2_EEEENS_17__normal_iteratorIT_T0_E15difference_typeERKSA_SD_>
100017b0:	1c03      	adds	r3, r0, #0
100017b2:	61fb      	str	r3, [r7, #28]
100017b4:	68fa      	ldr	r2, [r7, #12]
100017b6:	6a3b      	ldr	r3, [r7, #32]
100017b8:	1c10      	adds	r0, r2, #0
100017ba:	1c19      	adds	r1, r3, #0
100017bc:	f000 f982 	bl	10001ac4 <_ZNSt12_Vector_baseIP13ShiftRegisterSaIS1_EE11_M_allocateEj>
100017c0:	1c03      	adds	r3, r0, #0
100017c2:	61bb      	str	r3, [r7, #24]
100017c4:	69bb      	ldr	r3, [r7, #24]
100017c6:	617b      	str	r3, [r7, #20]
100017c8:	68f9      	ldr	r1, [r7, #12]
100017ca:	69fb      	ldr	r3, [r7, #28]
100017cc:	009b      	lsls	r3, r3, #2
100017ce:	69ba      	ldr	r2, [r7, #24]
100017d0:	18d2      	adds	r2, r2, r3
100017d2:	687b      	ldr	r3, [r7, #4]
100017d4:	1c08      	adds	r0, r1, #0
100017d6:	1c11      	adds	r1, r2, #0
100017d8:	1c1a      	adds	r2, r3, #0
100017da:	f7ff ff85 	bl	100016e8 <_ZN9__gnu_cxx14__alloc_traitsISaIP13ShiftRegisterEE9constructIS2_EEvRS3_PS2_RKT_>
100017de:	2300      	movs	r3, #0
100017e0:	617b      	str	r3, [r7, #20]
100017e2:	68fb      	ldr	r3, [r7, #12]
100017e4:	681d      	ldr	r5, [r3, #0]
100017e6:	2308      	movs	r3, #8
100017e8:	18fb      	adds	r3, r7, r3
100017ea:	1c18      	adds	r0, r3, #0
100017ec:	f000 f8c4 	bl	10001978 <_ZNK9__gnu_cxx17__normal_iteratorIPP13ShiftRegisterSt6vectorIS2_SaIS2_EEE4baseEv>
100017f0:	1c03      	adds	r3, r0, #0
100017f2:	681c      	ldr	r4, [r3, #0]
100017f4:	68fb      	ldr	r3, [r7, #12]
100017f6:	1c18      	adds	r0, r3, #0
100017f8:	f7ff ff5c 	bl	100016b4 <_ZNSt12_Vector_baseIP13ShiftRegisterSaIS1_EE19_M_get_Tp_allocatorEv>
100017fc:	1c06      	adds	r6, r0, #0
100017fe:	69bb      	ldr	r3, [r7, #24]
10001800:	1c28      	adds	r0, r5, #0
10001802:	1c21      	adds	r1, r4, #0
10001804:	1c1a      	adds	r2, r3, #0
10001806:	1c33      	adds	r3, r6, #0
10001808:	f000 f972 	bl	10001af0 <_ZSt34__uninitialized_move_if_noexcept_aIPP13ShiftRegisterS2_SaIS1_EET0_T_S5_S4_RT1_>
1000180c:	1c03      	adds	r3, r0, #0
1000180e:	617b      	str	r3, [r7, #20]
10001810:	697b      	ldr	r3, [r7, #20]
10001812:	3304      	adds	r3, #4
10001814:	617b      	str	r3, [r7, #20]
10001816:	2308      	movs	r3, #8
10001818:	18fb      	adds	r3, r7, r3
1000181a:	1c18      	adds	r0, r3, #0
1000181c:	f000 f8ac 	bl	10001978 <_ZNK9__gnu_cxx17__normal_iteratorIPP13ShiftRegisterSt6vectorIS2_SaIS2_EEE4baseEv>
10001820:	1c03      	adds	r3, r0, #0
10001822:	681d      	ldr	r5, [r3, #0]
10001824:	68fb      	ldr	r3, [r7, #12]
10001826:	685c      	ldr	r4, [r3, #4]
10001828:	68fb      	ldr	r3, [r7, #12]
1000182a:	1c18      	adds	r0, r3, #0
1000182c:	f7ff ff42 	bl	100016b4 <_ZNSt12_Vector_baseIP13ShiftRegisterSaIS1_EE19_M_get_Tp_allocatorEv>
10001830:	1c06      	adds	r6, r0, #0
10001832:	697b      	ldr	r3, [r7, #20]
10001834:	1c28      	adds	r0, r5, #0
10001836:	1c21      	adds	r1, r4, #0
10001838:	1c1a      	adds	r2, r3, #0
1000183a:	1c33      	adds	r3, r6, #0
1000183c:	f000 f958 	bl	10001af0 <_ZSt34__uninitialized_move_if_noexcept_aIPP13ShiftRegisterS2_SaIS1_EET0_T_S5_S4_RT1_>
10001840:	1c03      	adds	r3, r0, #0
10001842:	617b      	str	r3, [r7, #20]
10001844:	68fb      	ldr	r3, [r7, #12]
10001846:	681d      	ldr	r5, [r3, #0]
10001848:	68fb      	ldr	r3, [r7, #12]
1000184a:	685c      	ldr	r4, [r3, #4]
1000184c:	68fb      	ldr	r3, [r7, #12]
1000184e:	1c18      	adds	r0, r3, #0
10001850:	f7ff ff30 	bl	100016b4 <_ZNSt12_Vector_baseIP13ShiftRegisterSaIS1_EE19_M_get_Tp_allocatorEv>
10001854:	1c03      	adds	r3, r0, #0
10001856:	1c28      	adds	r0, r5, #0
10001858:	1c21      	adds	r1, r4, #0
1000185a:	1c1a      	adds	r2, r3, #0
1000185c:	f7ff ff34 	bl	100016c8 <_ZSt8_DestroyIPP13ShiftRegisterS1_EvT_S3_RSaIT0_E>
10001860:	68f9      	ldr	r1, [r7, #12]
10001862:	68fb      	ldr	r3, [r7, #12]
10001864:	681a      	ldr	r2, [r3, #0]
10001866:	68fb      	ldr	r3, [r7, #12]
10001868:	689b      	ldr	r3, [r3, #8]
1000186a:	1c18      	adds	r0, r3, #0
1000186c:	68fb      	ldr	r3, [r7, #12]
1000186e:	681b      	ldr	r3, [r3, #0]
10001870:	1ac3      	subs	r3, r0, r3
10001872:	109b      	asrs	r3, r3, #2
10001874:	1c08      	adds	r0, r1, #0
10001876:	1c11      	adds	r1, r2, #0
10001878:	1c1a      	adds	r2, r3, #0
1000187a:	f000 f847 	bl	1000190c <_ZNSt12_Vector_baseIP13ShiftRegisterSaIS1_EE13_M_deallocateEPS1_j>
1000187e:	68fb      	ldr	r3, [r7, #12]
10001880:	69ba      	ldr	r2, [r7, #24]
10001882:	601a      	str	r2, [r3, #0]
10001884:	68fb      	ldr	r3, [r7, #12]
10001886:	697a      	ldr	r2, [r7, #20]
10001888:	605a      	str	r2, [r3, #4]
1000188a:	6a3b      	ldr	r3, [r7, #32]
1000188c:	009b      	lsls	r3, r3, #2
1000188e:	69ba      	ldr	r2, [r7, #24]
10001890:	18d2      	adds	r2, r2, r3
10001892:	68fb      	ldr	r3, [r7, #12]
10001894:	609a      	str	r2, [r3, #8]
10001896:	46bd      	mov	sp, r7
10001898:	b00b      	add	sp, #44	; 0x2c
1000189a:	bdf0      	pop	{r4, r5, r6, r7, pc}
1000189c:	10004780 	.word	0x10004780

100018a0 <_ZNSt6vectorIP13ShiftRegisterSaIS1_EE3endEv>:
100018a0:	b580      	push	{r7, lr}
100018a2:	b084      	sub	sp, #16
100018a4:	af00      	add	r7, sp, #0
100018a6:	6078      	str	r0, [r7, #4]
100018a8:	687b      	ldr	r3, [r7, #4]
100018aa:	3304      	adds	r3, #4
100018ac:	220c      	movs	r2, #12
100018ae:	18ba      	adds	r2, r7, r2
100018b0:	1c10      	adds	r0, r2, #0
100018b2:	1c19      	adds	r1, r3, #0
100018b4:	f000 f92e 	bl	10001b14 <_ZN9__gnu_cxx17__normal_iteratorIPP13ShiftRegisterSt6vectorIS2_SaIS2_EEEC1ERKS3_>
100018b8:	68fb      	ldr	r3, [r7, #12]
100018ba:	1c18      	adds	r0, r3, #0
100018bc:	46bd      	mov	sp, r7
100018be:	b004      	add	sp, #16
100018c0:	bd80      	pop	{r7, pc}
100018c2:	46c0      	nop			; (mov r8, r8)

100018c4 <_ZNSt12_Vector_baseIP13ShiftRegisterSaIS1_EE12_Vector_implC1Ev>:
100018c4:	b580      	push	{r7, lr}
100018c6:	b082      	sub	sp, #8
100018c8:	af00      	add	r7, sp, #0
100018ca:	6078      	str	r0, [r7, #4]
100018cc:	687b      	ldr	r3, [r7, #4]
100018ce:	1c18      	adds	r0, r3, #0
100018d0:	f000 f92e 	bl	10001b30 <_ZNSaIP13ShiftRegisterEC1Ev>
100018d4:	687b      	ldr	r3, [r7, #4]
100018d6:	2200      	movs	r2, #0
100018d8:	601a      	str	r2, [r3, #0]
100018da:	687b      	ldr	r3, [r7, #4]
100018dc:	2200      	movs	r2, #0
100018de:	605a      	str	r2, [r3, #4]
100018e0:	687b      	ldr	r3, [r7, #4]
100018e2:	2200      	movs	r2, #0
100018e4:	609a      	str	r2, [r3, #8]
100018e6:	687b      	ldr	r3, [r7, #4]
100018e8:	1c18      	adds	r0, r3, #0
100018ea:	46bd      	mov	sp, r7
100018ec:	b002      	add	sp, #8
100018ee:	bd80      	pop	{r7, pc}

100018f0 <_ZNSaIP13ShiftRegisterED1Ev>:
100018f0:	b580      	push	{r7, lr}
100018f2:	b082      	sub	sp, #8
100018f4:	af00      	add	r7, sp, #0
100018f6:	6078      	str	r0, [r7, #4]
100018f8:	687b      	ldr	r3, [r7, #4]
100018fa:	1c18      	adds	r0, r3, #0
100018fc:	f000 f926 	bl	10001b4c <_ZN9__gnu_cxx13new_allocatorIP13ShiftRegisterED1Ev>
10001900:	687b      	ldr	r3, [r7, #4]
10001902:	1c18      	adds	r0, r3, #0
10001904:	46bd      	mov	sp, r7
10001906:	b002      	add	sp, #8
10001908:	bd80      	pop	{r7, pc}
1000190a:	46c0      	nop			; (mov r8, r8)

1000190c <_ZNSt12_Vector_baseIP13ShiftRegisterSaIS1_EE13_M_deallocateEPS1_j>:
1000190c:	b580      	push	{r7, lr}
1000190e:	b084      	sub	sp, #16
10001910:	af00      	add	r7, sp, #0
10001912:	60f8      	str	r0, [r7, #12]
10001914:	60b9      	str	r1, [r7, #8]
10001916:	607a      	str	r2, [r7, #4]
10001918:	68bb      	ldr	r3, [r7, #8]
1000191a:	2b00      	cmp	r3, #0
1000191c:	d007      	beq.n	1000192e <_ZNSt12_Vector_baseIP13ShiftRegisterSaIS1_EE13_M_deallocateEPS1_j+0x22>
1000191e:	68f9      	ldr	r1, [r7, #12]
10001920:	68ba      	ldr	r2, [r7, #8]
10001922:	687b      	ldr	r3, [r7, #4]
10001924:	1c08      	adds	r0, r1, #0
10001926:	1c11      	adds	r1, r2, #0
10001928:	1c1a      	adds	r2, r3, #0
1000192a:	f000 f919 	bl	10001b60 <_ZN9__gnu_cxx14__alloc_traitsISaIP13ShiftRegisterEE10deallocateERS3_PS2_j>
1000192e:	46bd      	mov	sp, r7
10001930:	b004      	add	sp, #16
10001932:	bd80      	pop	{r7, pc}

10001934 <_ZSt8_DestroyIPP13ShiftRegisterEvT_S3_>:
10001934:	b580      	push	{r7, lr}
10001936:	b082      	sub	sp, #8
10001938:	af00      	add	r7, sp, #0
1000193a:	6078      	str	r0, [r7, #4]
1000193c:	6039      	str	r1, [r7, #0]
1000193e:	687a      	ldr	r2, [r7, #4]
10001940:	683b      	ldr	r3, [r7, #0]
10001942:	1c10      	adds	r0, r2, #0
10001944:	1c19      	adds	r1, r3, #0
10001946:	f000 f91d 	bl	10001b84 <_ZNSt12_Destroy_auxILb1EE9__destroyIPP13ShiftRegisterEEvT_S5_>
1000194a:	46bd      	mov	sp, r7
1000194c:	b002      	add	sp, #8
1000194e:	bd80      	pop	{r7, pc}

10001950 <_ZN9__gnu_cxx13new_allocatorIP13ShiftRegisterE9constructEPS2_RKS2_>:
10001950:	b580      	push	{r7, lr}
10001952:	b084      	sub	sp, #16
10001954:	af00      	add	r7, sp, #0
10001956:	60f8      	str	r0, [r7, #12]
10001958:	60b9      	str	r1, [r7, #8]
1000195a:	607a      	str	r2, [r7, #4]
1000195c:	68bb      	ldr	r3, [r7, #8]
1000195e:	2004      	movs	r0, #4
10001960:	1c19      	adds	r1, r3, #0
10001962:	f7ff fd39 	bl	100013d8 <_ZnwjPv>
10001966:	1e03      	subs	r3, r0, #0
10001968:	d002      	beq.n	10001970 <_ZN9__gnu_cxx13new_allocatorIP13ShiftRegisterE9constructEPS2_RKS2_+0x20>
1000196a:	687a      	ldr	r2, [r7, #4]
1000196c:	6812      	ldr	r2, [r2, #0]
1000196e:	601a      	str	r2, [r3, #0]
10001970:	46bd      	mov	sp, r7
10001972:	b004      	add	sp, #16
10001974:	bd80      	pop	{r7, pc}
10001976:	46c0      	nop			; (mov r8, r8)

10001978 <_ZNK9__gnu_cxx17__normal_iteratorIPP13ShiftRegisterSt6vectorIS2_SaIS2_EEE4baseEv>:
10001978:	b580      	push	{r7, lr}
1000197a:	b082      	sub	sp, #8
1000197c:	af00      	add	r7, sp, #0
1000197e:	6078      	str	r0, [r7, #4]
10001980:	687b      	ldr	r3, [r7, #4]
10001982:	1c18      	adds	r0, r3, #0
10001984:	46bd      	mov	sp, r7
10001986:	b002      	add	sp, #8
10001988:	bd80      	pop	{r7, pc}
1000198a:	46c0      	nop			; (mov r8, r8)

1000198c <_ZSt13copy_backwardIPP13ShiftRegisterS2_ET0_T_S4_S3_>:
1000198c:	b590      	push	{r4, r7, lr}
1000198e:	b085      	sub	sp, #20
10001990:	af00      	add	r7, sp, #0
10001992:	60f8      	str	r0, [r7, #12]
10001994:	60b9      	str	r1, [r7, #8]
10001996:	607a      	str	r2, [r7, #4]
10001998:	68fb      	ldr	r3, [r7, #12]
1000199a:	1c18      	adds	r0, r3, #0
1000199c:	f000 f8fa 	bl	10001b94 <_ZSt12__miter_baseIPP13ShiftRegisterENSt11_Miter_baseIT_E13iterator_typeES4_>
100019a0:	1c04      	adds	r4, r0, #0
100019a2:	68bb      	ldr	r3, [r7, #8]
100019a4:	1c18      	adds	r0, r3, #0
100019a6:	f000 f8f5 	bl	10001b94 <_ZSt12__miter_baseIPP13ShiftRegisterENSt11_Miter_baseIT_E13iterator_typeES4_>
100019aa:	1c02      	adds	r2, r0, #0
100019ac:	687b      	ldr	r3, [r7, #4]
100019ae:	1c20      	adds	r0, r4, #0
100019b0:	1c11      	adds	r1, r2, #0
100019b2:	1c1a      	adds	r2, r3, #0
100019b4:	f000 f8fc 	bl	10001bb0 <_ZSt23__copy_move_backward_a2ILb0EPP13ShiftRegisterS2_ET1_T0_S4_S3_>
100019b8:	1c03      	adds	r3, r0, #0
100019ba:	1c18      	adds	r0, r3, #0
100019bc:	46bd      	mov	sp, r7
100019be:	b005      	add	sp, #20
100019c0:	bd90      	pop	{r4, r7, pc}
100019c2:	46c0      	nop			; (mov r8, r8)

100019c4 <_ZNK9__gnu_cxx17__normal_iteratorIPP13ShiftRegisterSt6vectorIS2_SaIS2_EEEdeEv>:
100019c4:	b580      	push	{r7, lr}
100019c6:	b082      	sub	sp, #8
100019c8:	af00      	add	r7, sp, #0
100019ca:	6078      	str	r0, [r7, #4]
100019cc:	687b      	ldr	r3, [r7, #4]
100019ce:	681b      	ldr	r3, [r3, #0]
100019d0:	1c18      	adds	r0, r3, #0
100019d2:	46bd      	mov	sp, r7
100019d4:	b002      	add	sp, #8
100019d6:	bd80      	pop	{r7, pc}

100019d8 <_ZNKSt6vectorIP13ShiftRegisterSaIS1_EE12_M_check_lenEjPKc>:
100019d8:	b590      	push	{r4, r7, lr}
100019da:	b087      	sub	sp, #28
100019dc:	af00      	add	r7, sp, #0
100019de:	60f8      	str	r0, [r7, #12]
100019e0:	60b9      	str	r1, [r7, #8]
100019e2:	607a      	str	r2, [r7, #4]
100019e4:	68fb      	ldr	r3, [r7, #12]
100019e6:	1c18      	adds	r0, r3, #0
100019e8:	f000 f902 	bl	10001bf0 <_ZNKSt6vectorIP13ShiftRegisterSaIS1_EE8max_sizeEv>
100019ec:	1c04      	adds	r4, r0, #0
100019ee:	68fb      	ldr	r3, [r7, #12]
100019f0:	1c18      	adds	r0, r3, #0
100019f2:	f7ff fddf 	bl	100015b4 <_ZNKSt6vectorIP13ShiftRegisterSaIS1_EE4sizeEv>
100019f6:	1c03      	adds	r3, r0, #0
100019f8:	1ae2      	subs	r2, r4, r3
100019fa:	68bb      	ldr	r3, [r7, #8]
100019fc:	429a      	cmp	r2, r3
100019fe:	419b      	sbcs	r3, r3
10001a00:	425b      	negs	r3, r3
10001a02:	b2db      	uxtb	r3, r3
10001a04:	2b00      	cmp	r3, #0
10001a06:	d003      	beq.n	10001a10 <_ZNKSt6vectorIP13ShiftRegisterSaIS1_EE12_M_check_lenEjPKc+0x38>
10001a08:	687b      	ldr	r3, [r7, #4]
10001a0a:	1c18      	adds	r0, r3, #0
10001a0c:	f002 fbdd 	bl	100041ca <_ZSt20__throw_length_errorPKc>
10001a10:	68fb      	ldr	r3, [r7, #12]
10001a12:	1c18      	adds	r0, r3, #0
10001a14:	f7ff fdce 	bl	100015b4 <_ZNKSt6vectorIP13ShiftRegisterSaIS1_EE4sizeEv>
10001a18:	1c04      	adds	r4, r0, #0
10001a1a:	68fb      	ldr	r3, [r7, #12]
10001a1c:	1c18      	adds	r0, r3, #0
10001a1e:	f7ff fdc9 	bl	100015b4 <_ZNKSt6vectorIP13ShiftRegisterSaIS1_EE4sizeEv>
10001a22:	1c03      	adds	r3, r0, #0
10001a24:	613b      	str	r3, [r7, #16]
10001a26:	2310      	movs	r3, #16
10001a28:	18fa      	adds	r2, r7, r3
10001a2a:	2308      	movs	r3, #8
10001a2c:	18fb      	adds	r3, r7, r3
10001a2e:	1c10      	adds	r0, r2, #0
10001a30:	1c19      	adds	r1, r3, #0
10001a32:	f000 f8ef 	bl	10001c14 <_ZSt3maxIjERKT_S2_S2_>
10001a36:	1c03      	adds	r3, r0, #0
10001a38:	681b      	ldr	r3, [r3, #0]
10001a3a:	18e3      	adds	r3, r4, r3
10001a3c:	617b      	str	r3, [r7, #20]
10001a3e:	68fb      	ldr	r3, [r7, #12]
10001a40:	1c18      	adds	r0, r3, #0
10001a42:	f7ff fdb7 	bl	100015b4 <_ZNKSt6vectorIP13ShiftRegisterSaIS1_EE4sizeEv>
10001a46:	1e02      	subs	r2, r0, #0
10001a48:	697b      	ldr	r3, [r7, #20]
10001a4a:	429a      	cmp	r2, r3
10001a4c:	d807      	bhi.n	10001a5e <_ZNKSt6vectorIP13ShiftRegisterSaIS1_EE12_M_check_lenEjPKc+0x86>
10001a4e:	68fb      	ldr	r3, [r7, #12]
10001a50:	1c18      	adds	r0, r3, #0
10001a52:	f000 f8cd 	bl	10001bf0 <_ZNKSt6vectorIP13ShiftRegisterSaIS1_EE8max_sizeEv>
10001a56:	1e02      	subs	r2, r0, #0
10001a58:	697b      	ldr	r3, [r7, #20]
10001a5a:	429a      	cmp	r2, r3
10001a5c:	d205      	bcs.n	10001a6a <_ZNKSt6vectorIP13ShiftRegisterSaIS1_EE12_M_check_lenEjPKc+0x92>
10001a5e:	68fb      	ldr	r3, [r7, #12]
10001a60:	1c18      	adds	r0, r3, #0
10001a62:	f000 f8c5 	bl	10001bf0 <_ZNKSt6vectorIP13ShiftRegisterSaIS1_EE8max_sizeEv>
10001a66:	1c03      	adds	r3, r0, #0
10001a68:	e000      	b.n	10001a6c <_ZNKSt6vectorIP13ShiftRegisterSaIS1_EE12_M_check_lenEjPKc+0x94>
10001a6a:	697b      	ldr	r3, [r7, #20]
10001a6c:	1c18      	adds	r0, r3, #0
10001a6e:	46bd      	mov	sp, r7
10001a70:	b007      	add	sp, #28
10001a72:	bd90      	pop	{r4, r7, pc}

10001a74 <_ZNSt6vectorIP13ShiftRegisterSaIS1_EE5beginEv>:
10001a74:	b580      	push	{r7, lr}
10001a76:	b084      	sub	sp, #16
10001a78:	af00      	add	r7, sp, #0
10001a7a:	6078      	str	r0, [r7, #4]
10001a7c:	687b      	ldr	r3, [r7, #4]
10001a7e:	220c      	movs	r2, #12
10001a80:	18ba      	adds	r2, r7, r2
10001a82:	1c10      	adds	r0, r2, #0
10001a84:	1c19      	adds	r1, r3, #0
10001a86:	f000 f845 	bl	10001b14 <_ZN9__gnu_cxx17__normal_iteratorIPP13ShiftRegisterSt6vectorIS2_SaIS2_EEEC1ERKS3_>
10001a8a:	68fb      	ldr	r3, [r7, #12]
10001a8c:	1c18      	adds	r0, r3, #0
10001a8e:	46bd      	mov	sp, r7
10001a90:	b004      	add	sp, #16
10001a92:	bd80      	pop	{r7, pc}

10001a94 <_ZN9__gnu_cxxmiIPP13ShiftRegisterSt6vectorIS2_SaIS2_EEEENS_17__normal_iteratorIT_T0_E15difference_typeERKSA_SD_>:
10001a94:	b590      	push	{r4, r7, lr}
10001a96:	b083      	sub	sp, #12
10001a98:	af00      	add	r7, sp, #0
10001a9a:	6078      	str	r0, [r7, #4]
10001a9c:	6039      	str	r1, [r7, #0]
10001a9e:	687b      	ldr	r3, [r7, #4]
10001aa0:	1c18      	adds	r0, r3, #0
10001aa2:	f7ff ff69 	bl	10001978 <_ZNK9__gnu_cxx17__normal_iteratorIPP13ShiftRegisterSt6vectorIS2_SaIS2_EEE4baseEv>
10001aa6:	1c03      	adds	r3, r0, #0
10001aa8:	681b      	ldr	r3, [r3, #0]
10001aaa:	1c1c      	adds	r4, r3, #0
10001aac:	683b      	ldr	r3, [r7, #0]
10001aae:	1c18      	adds	r0, r3, #0
10001ab0:	f7ff ff62 	bl	10001978 <_ZNK9__gnu_cxx17__normal_iteratorIPP13ShiftRegisterSt6vectorIS2_SaIS2_EEE4baseEv>
10001ab4:	1c03      	adds	r3, r0, #0
10001ab6:	681b      	ldr	r3, [r3, #0]
10001ab8:	1ae3      	subs	r3, r4, r3
10001aba:	109b      	asrs	r3, r3, #2
10001abc:	1c18      	adds	r0, r3, #0
10001abe:	46bd      	mov	sp, r7
10001ac0:	b003      	add	sp, #12
10001ac2:	bd90      	pop	{r4, r7, pc}

10001ac4 <_ZNSt12_Vector_baseIP13ShiftRegisterSaIS1_EE11_M_allocateEj>:
10001ac4:	b580      	push	{r7, lr}
10001ac6:	b082      	sub	sp, #8
10001ac8:	af00      	add	r7, sp, #0
10001aca:	6078      	str	r0, [r7, #4]
10001acc:	6039      	str	r1, [r7, #0]
10001ace:	683b      	ldr	r3, [r7, #0]
10001ad0:	2b00      	cmp	r3, #0
10001ad2:	d007      	beq.n	10001ae4 <_ZNSt12_Vector_baseIP13ShiftRegisterSaIS1_EE11_M_allocateEj+0x20>
10001ad4:	687a      	ldr	r2, [r7, #4]
10001ad6:	683b      	ldr	r3, [r7, #0]
10001ad8:	1c10      	adds	r0, r2, #0
10001ada:	1c19      	adds	r1, r3, #0
10001adc:	f000 f8ac 	bl	10001c38 <_ZN9__gnu_cxx14__alloc_traitsISaIP13ShiftRegisterEE8allocateERS3_j>
10001ae0:	1c03      	adds	r3, r0, #0
10001ae2:	e000      	b.n	10001ae6 <_ZNSt12_Vector_baseIP13ShiftRegisterSaIS1_EE11_M_allocateEj+0x22>
10001ae4:	2300      	movs	r3, #0
10001ae6:	1c18      	adds	r0, r3, #0
10001ae8:	46bd      	mov	sp, r7
10001aea:	b002      	add	sp, #8
10001aec:	bd80      	pop	{r7, pc}
10001aee:	46c0      	nop			; (mov r8, r8)

10001af0 <_ZSt34__uninitialized_move_if_noexcept_aIPP13ShiftRegisterS2_SaIS1_EET0_T_S5_S4_RT1_>:
10001af0:	b580      	push	{r7, lr}
10001af2:	b084      	sub	sp, #16
10001af4:	af00      	add	r7, sp, #0
10001af6:	60f8      	str	r0, [r7, #12]
10001af8:	60b9      	str	r1, [r7, #8]
10001afa:	607a      	str	r2, [r7, #4]
10001afc:	603b      	str	r3, [r7, #0]
10001afe:	68f8      	ldr	r0, [r7, #12]
10001b00:	68b9      	ldr	r1, [r7, #8]
10001b02:	687a      	ldr	r2, [r7, #4]
10001b04:	683b      	ldr	r3, [r7, #0]
10001b06:	f000 f8a9 	bl	10001c5c <_ZSt22__uninitialized_copy_aIPP13ShiftRegisterS2_S1_ET0_T_S4_S3_RSaIT1_E>
10001b0a:	1c03      	adds	r3, r0, #0
10001b0c:	1c18      	adds	r0, r3, #0
10001b0e:	46bd      	mov	sp, r7
10001b10:	b004      	add	sp, #16
10001b12:	bd80      	pop	{r7, pc}

10001b14 <_ZN9__gnu_cxx17__normal_iteratorIPP13ShiftRegisterSt6vectorIS2_SaIS2_EEEC1ERKS3_>:
10001b14:	b580      	push	{r7, lr}
10001b16:	b082      	sub	sp, #8
10001b18:	af00      	add	r7, sp, #0
10001b1a:	6078      	str	r0, [r7, #4]
10001b1c:	6039      	str	r1, [r7, #0]
10001b1e:	683b      	ldr	r3, [r7, #0]
10001b20:	681a      	ldr	r2, [r3, #0]
10001b22:	687b      	ldr	r3, [r7, #4]
10001b24:	601a      	str	r2, [r3, #0]
10001b26:	687b      	ldr	r3, [r7, #4]
10001b28:	1c18      	adds	r0, r3, #0
10001b2a:	46bd      	mov	sp, r7
10001b2c:	b002      	add	sp, #8
10001b2e:	bd80      	pop	{r7, pc}

10001b30 <_ZNSaIP13ShiftRegisterEC1Ev>:
10001b30:	b580      	push	{r7, lr}
10001b32:	b082      	sub	sp, #8
10001b34:	af00      	add	r7, sp, #0
10001b36:	6078      	str	r0, [r7, #4]
10001b38:	687b      	ldr	r3, [r7, #4]
10001b3a:	1c18      	adds	r0, r3, #0
10001b3c:	f000 f8a2 	bl	10001c84 <_ZN9__gnu_cxx13new_allocatorIP13ShiftRegisterEC1Ev>
10001b40:	687b      	ldr	r3, [r7, #4]
10001b42:	1c18      	adds	r0, r3, #0
10001b44:	46bd      	mov	sp, r7
10001b46:	b002      	add	sp, #8
10001b48:	bd80      	pop	{r7, pc}
10001b4a:	46c0      	nop			; (mov r8, r8)

10001b4c <_ZN9__gnu_cxx13new_allocatorIP13ShiftRegisterED1Ev>:
10001b4c:	b580      	push	{r7, lr}
10001b4e:	b082      	sub	sp, #8
10001b50:	af00      	add	r7, sp, #0
10001b52:	6078      	str	r0, [r7, #4]
10001b54:	687b      	ldr	r3, [r7, #4]
10001b56:	1c18      	adds	r0, r3, #0
10001b58:	46bd      	mov	sp, r7
10001b5a:	b002      	add	sp, #8
10001b5c:	bd80      	pop	{r7, pc}
10001b5e:	46c0      	nop			; (mov r8, r8)

10001b60 <_ZN9__gnu_cxx14__alloc_traitsISaIP13ShiftRegisterEE10deallocateERS3_PS2_j>:
10001b60:	b580      	push	{r7, lr}
10001b62:	b084      	sub	sp, #16
10001b64:	af00      	add	r7, sp, #0
10001b66:	60f8      	str	r0, [r7, #12]
10001b68:	60b9      	str	r1, [r7, #8]
10001b6a:	607a      	str	r2, [r7, #4]
10001b6c:	68f9      	ldr	r1, [r7, #12]
10001b6e:	68ba      	ldr	r2, [r7, #8]
10001b70:	687b      	ldr	r3, [r7, #4]
10001b72:	1c08      	adds	r0, r1, #0
10001b74:	1c11      	adds	r1, r2, #0
10001b76:	1c1a      	adds	r2, r3, #0
10001b78:	f000 f88e 	bl	10001c98 <_ZN9__gnu_cxx13new_allocatorIP13ShiftRegisterE10deallocateEPS2_j>
10001b7c:	46bd      	mov	sp, r7
10001b7e:	b004      	add	sp, #16
10001b80:	bd80      	pop	{r7, pc}
10001b82:	46c0      	nop			; (mov r8, r8)

10001b84 <_ZNSt12_Destroy_auxILb1EE9__destroyIPP13ShiftRegisterEEvT_S5_>:
10001b84:	b580      	push	{r7, lr}
10001b86:	b082      	sub	sp, #8
10001b88:	af00      	add	r7, sp, #0
10001b8a:	6078      	str	r0, [r7, #4]
10001b8c:	6039      	str	r1, [r7, #0]
10001b8e:	46bd      	mov	sp, r7
10001b90:	b002      	add	sp, #8
10001b92:	bd80      	pop	{r7, pc}

10001b94 <_ZSt12__miter_baseIPP13ShiftRegisterENSt11_Miter_baseIT_E13iterator_typeES4_>:
10001b94:	b580      	push	{r7, lr}
10001b96:	b082      	sub	sp, #8
10001b98:	af00      	add	r7, sp, #0
10001b9a:	6078      	str	r0, [r7, #4]
10001b9c:	687b      	ldr	r3, [r7, #4]
10001b9e:	1c18      	adds	r0, r3, #0
10001ba0:	f000 f888 	bl	10001cb4 <_ZNSt10_Iter_baseIPP13ShiftRegisterLb0EE7_S_baseES2_>
10001ba4:	1c03      	adds	r3, r0, #0
10001ba6:	1c18      	adds	r0, r3, #0
10001ba8:	46bd      	mov	sp, r7
10001baa:	b002      	add	sp, #8
10001bac:	bd80      	pop	{r7, pc}
10001bae:	46c0      	nop			; (mov r8, r8)

10001bb0 <_ZSt23__copy_move_backward_a2ILb0EPP13ShiftRegisterS2_ET1_T0_S4_S3_>:
10001bb0:	b5b0      	push	{r4, r5, r7, lr}
10001bb2:	b084      	sub	sp, #16
10001bb4:	af00      	add	r7, sp, #0
10001bb6:	60f8      	str	r0, [r7, #12]
10001bb8:	60b9      	str	r1, [r7, #8]
10001bba:	607a      	str	r2, [r7, #4]
10001bbc:	68fb      	ldr	r3, [r7, #12]
10001bbe:	1c18      	adds	r0, r3, #0
10001bc0:	f000 f882 	bl	10001cc8 <_ZSt12__niter_baseIPP13ShiftRegisterENSt11_Niter_baseIT_E13iterator_typeES4_>
10001bc4:	1c05      	adds	r5, r0, #0
10001bc6:	68bb      	ldr	r3, [r7, #8]
10001bc8:	1c18      	adds	r0, r3, #0
10001bca:	f000 f87d 	bl	10001cc8 <_ZSt12__niter_baseIPP13ShiftRegisterENSt11_Niter_baseIT_E13iterator_typeES4_>
10001bce:	1c04      	adds	r4, r0, #0
10001bd0:	687b      	ldr	r3, [r7, #4]
10001bd2:	1c18      	adds	r0, r3, #0
10001bd4:	f000 f878 	bl	10001cc8 <_ZSt12__niter_baseIPP13ShiftRegisterENSt11_Niter_baseIT_E13iterator_typeES4_>
10001bd8:	1c03      	adds	r3, r0, #0
10001bda:	1c28      	adds	r0, r5, #0
10001bdc:	1c21      	adds	r1, r4, #0
10001bde:	1c1a      	adds	r2, r3, #0
10001be0:	f000 f880 	bl	10001ce4 <_ZSt22__copy_move_backward_aILb0EPP13ShiftRegisterS2_ET1_T0_S4_S3_>
10001be4:	1c03      	adds	r3, r0, #0
10001be6:	1c18      	adds	r0, r3, #0
10001be8:	46bd      	mov	sp, r7
10001bea:	b004      	add	sp, #16
10001bec:	bdb0      	pop	{r4, r5, r7, pc}
10001bee:	46c0      	nop			; (mov r8, r8)

10001bf0 <_ZNKSt6vectorIP13ShiftRegisterSaIS1_EE8max_sizeEv>:
10001bf0:	b580      	push	{r7, lr}
10001bf2:	b082      	sub	sp, #8
10001bf4:	af00      	add	r7, sp, #0
10001bf6:	6078      	str	r0, [r7, #4]
10001bf8:	687b      	ldr	r3, [r7, #4]
10001bfa:	1c18      	adds	r0, r3, #0
10001bfc:	f000 f898 	bl	10001d30 <_ZNKSt12_Vector_baseIP13ShiftRegisterSaIS1_EE19_M_get_Tp_allocatorEv>
10001c00:	1c03      	adds	r3, r0, #0
10001c02:	1c18      	adds	r0, r3, #0
10001c04:	f000 f886 	bl	10001d14 <_ZN9__gnu_cxx14__alloc_traitsISaIP13ShiftRegisterEE8max_sizeERKS3_>
10001c08:	1c03      	adds	r3, r0, #0
10001c0a:	1c18      	adds	r0, r3, #0
10001c0c:	46bd      	mov	sp, r7
10001c0e:	b002      	add	sp, #8
10001c10:	bd80      	pop	{r7, pc}
10001c12:	46c0      	nop			; (mov r8, r8)

10001c14 <_ZSt3maxIjERKT_S2_S2_>:
10001c14:	b580      	push	{r7, lr}
10001c16:	b082      	sub	sp, #8
10001c18:	af00      	add	r7, sp, #0
10001c1a:	6078      	str	r0, [r7, #4]
10001c1c:	6039      	str	r1, [r7, #0]
10001c1e:	687b      	ldr	r3, [r7, #4]
10001c20:	681a      	ldr	r2, [r3, #0]
10001c22:	683b      	ldr	r3, [r7, #0]
10001c24:	681b      	ldr	r3, [r3, #0]
10001c26:	429a      	cmp	r2, r3
10001c28:	d201      	bcs.n	10001c2e <_ZSt3maxIjERKT_S2_S2_+0x1a>
10001c2a:	683b      	ldr	r3, [r7, #0]
10001c2c:	e000      	b.n	10001c30 <_ZSt3maxIjERKT_S2_S2_+0x1c>
10001c2e:	687b      	ldr	r3, [r7, #4]
10001c30:	1c18      	adds	r0, r3, #0
10001c32:	46bd      	mov	sp, r7
10001c34:	b002      	add	sp, #8
10001c36:	bd80      	pop	{r7, pc}

10001c38 <_ZN9__gnu_cxx14__alloc_traitsISaIP13ShiftRegisterEE8allocateERS3_j>:
10001c38:	b580      	push	{r7, lr}
10001c3a:	b082      	sub	sp, #8
10001c3c:	af00      	add	r7, sp, #0
10001c3e:	6078      	str	r0, [r7, #4]
10001c40:	6039      	str	r1, [r7, #0]
10001c42:	687a      	ldr	r2, [r7, #4]
10001c44:	683b      	ldr	r3, [r7, #0]
10001c46:	1c10      	adds	r0, r2, #0
10001c48:	1c19      	adds	r1, r3, #0
10001c4a:	2200      	movs	r2, #0
10001c4c:	f000 f87a 	bl	10001d44 <_ZN9__gnu_cxx13new_allocatorIP13ShiftRegisterE8allocateEjPKv>
10001c50:	1c03      	adds	r3, r0, #0
10001c52:	1c18      	adds	r0, r3, #0
10001c54:	46bd      	mov	sp, r7
10001c56:	b002      	add	sp, #8
10001c58:	bd80      	pop	{r7, pc}
10001c5a:	46c0      	nop			; (mov r8, r8)

10001c5c <_ZSt22__uninitialized_copy_aIPP13ShiftRegisterS2_S1_ET0_T_S4_S3_RSaIT1_E>:
10001c5c:	b580      	push	{r7, lr}
10001c5e:	b084      	sub	sp, #16
10001c60:	af00      	add	r7, sp, #0
10001c62:	60f8      	str	r0, [r7, #12]
10001c64:	60b9      	str	r1, [r7, #8]
10001c66:	607a      	str	r2, [r7, #4]
10001c68:	603b      	str	r3, [r7, #0]
10001c6a:	68f9      	ldr	r1, [r7, #12]
10001c6c:	68ba      	ldr	r2, [r7, #8]
10001c6e:	687b      	ldr	r3, [r7, #4]
10001c70:	1c08      	adds	r0, r1, #0
10001c72:	1c11      	adds	r1, r2, #0
10001c74:	1c1a      	adds	r2, r3, #0
10001c76:	f000 f883 	bl	10001d80 <_ZSt18uninitialized_copyIPP13ShiftRegisterS2_ET0_T_S4_S3_>
10001c7a:	1c03      	adds	r3, r0, #0
10001c7c:	1c18      	adds	r0, r3, #0
10001c7e:	46bd      	mov	sp, r7
10001c80:	b004      	add	sp, #16
10001c82:	bd80      	pop	{r7, pc}

10001c84 <_ZN9__gnu_cxx13new_allocatorIP13ShiftRegisterEC1Ev>:
10001c84:	b580      	push	{r7, lr}
10001c86:	b082      	sub	sp, #8
10001c88:	af00      	add	r7, sp, #0
10001c8a:	6078      	str	r0, [r7, #4]
10001c8c:	687b      	ldr	r3, [r7, #4]
10001c8e:	1c18      	adds	r0, r3, #0
10001c90:	46bd      	mov	sp, r7
10001c92:	b002      	add	sp, #8
10001c94:	bd80      	pop	{r7, pc}
10001c96:	46c0      	nop			; (mov r8, r8)

10001c98 <_ZN9__gnu_cxx13new_allocatorIP13ShiftRegisterE10deallocateEPS2_j>:
10001c98:	b580      	push	{r7, lr}
10001c9a:	b084      	sub	sp, #16
10001c9c:	af00      	add	r7, sp, #0
10001c9e:	60f8      	str	r0, [r7, #12]
10001ca0:	60b9      	str	r1, [r7, #8]
10001ca2:	607a      	str	r2, [r7, #4]
10001ca4:	68bb      	ldr	r3, [r7, #8]
10001ca6:	1c18      	adds	r0, r3, #0
10001ca8:	f002 fa82 	bl	100041b0 <_ZdlPv>
10001cac:	46bd      	mov	sp, r7
10001cae:	b004      	add	sp, #16
10001cb0:	bd80      	pop	{r7, pc}
10001cb2:	46c0      	nop			; (mov r8, r8)

10001cb4 <_ZNSt10_Iter_baseIPP13ShiftRegisterLb0EE7_S_baseES2_>:
10001cb4:	b580      	push	{r7, lr}
10001cb6:	b082      	sub	sp, #8
10001cb8:	af00      	add	r7, sp, #0
10001cba:	6078      	str	r0, [r7, #4]
10001cbc:	687b      	ldr	r3, [r7, #4]
10001cbe:	1c18      	adds	r0, r3, #0
10001cc0:	46bd      	mov	sp, r7
10001cc2:	b002      	add	sp, #8
10001cc4:	bd80      	pop	{r7, pc}
10001cc6:	46c0      	nop			; (mov r8, r8)

10001cc8 <_ZSt12__niter_baseIPP13ShiftRegisterENSt11_Niter_baseIT_E13iterator_typeES4_>:
10001cc8:	b580      	push	{r7, lr}
10001cca:	b082      	sub	sp, #8
10001ccc:	af00      	add	r7, sp, #0
10001cce:	6078      	str	r0, [r7, #4]
10001cd0:	687b      	ldr	r3, [r7, #4]
10001cd2:	1c18      	adds	r0, r3, #0
10001cd4:	f7ff ffee 	bl	10001cb4 <_ZNSt10_Iter_baseIPP13ShiftRegisterLb0EE7_S_baseES2_>
10001cd8:	1c03      	adds	r3, r0, #0
10001cda:	1c18      	adds	r0, r3, #0
10001cdc:	46bd      	mov	sp, r7
10001cde:	b002      	add	sp, #8
10001ce0:	bd80      	pop	{r7, pc}
10001ce2:	46c0      	nop			; (mov r8, r8)

10001ce4 <_ZSt22__copy_move_backward_aILb0EPP13ShiftRegisterS2_ET1_T0_S4_S3_>:
10001ce4:	b580      	push	{r7, lr}
10001ce6:	b086      	sub	sp, #24
10001ce8:	af00      	add	r7, sp, #0
10001cea:	60f8      	str	r0, [r7, #12]
10001cec:	60b9      	str	r1, [r7, #8]
10001cee:	607a      	str	r2, [r7, #4]
10001cf0:	2317      	movs	r3, #23
10001cf2:	18fb      	adds	r3, r7, r3
10001cf4:	2201      	movs	r2, #1
10001cf6:	701a      	strb	r2, [r3, #0]
10001cf8:	68f9      	ldr	r1, [r7, #12]
10001cfa:	68ba      	ldr	r2, [r7, #8]
10001cfc:	687b      	ldr	r3, [r7, #4]
10001cfe:	1c08      	adds	r0, r1, #0
10001d00:	1c11      	adds	r1, r2, #0
10001d02:	1c1a      	adds	r2, r3, #0
10001d04:	f000 f854 	bl	10001db0 <_ZNSt20__copy_move_backwardILb0ELb1ESt26random_access_iterator_tagE13__copy_move_bIP13ShiftRegisterEEPT_PKS5_S8_S6_>
10001d08:	1c03      	adds	r3, r0, #0
10001d0a:	1c18      	adds	r0, r3, #0
10001d0c:	46bd      	mov	sp, r7
10001d0e:	b006      	add	sp, #24
10001d10:	bd80      	pop	{r7, pc}
10001d12:	46c0      	nop			; (mov r8, r8)

10001d14 <_ZN9__gnu_cxx14__alloc_traitsISaIP13ShiftRegisterEE8max_sizeERKS3_>:
10001d14:	b580      	push	{r7, lr}
10001d16:	b082      	sub	sp, #8
10001d18:	af00      	add	r7, sp, #0
10001d1a:	6078      	str	r0, [r7, #4]
10001d1c:	687b      	ldr	r3, [r7, #4]
10001d1e:	1c18      	adds	r0, r3, #0
10001d20:	f000 f86a 	bl	10001df8 <_ZNK9__gnu_cxx13new_allocatorIP13ShiftRegisterE8max_sizeEv>
10001d24:	1c03      	adds	r3, r0, #0
10001d26:	1c18      	adds	r0, r3, #0
10001d28:	46bd      	mov	sp, r7
10001d2a:	b002      	add	sp, #8
10001d2c:	bd80      	pop	{r7, pc}
10001d2e:	46c0      	nop			; (mov r8, r8)

10001d30 <_ZNKSt12_Vector_baseIP13ShiftRegisterSaIS1_EE19_M_get_Tp_allocatorEv>:
10001d30:	b580      	push	{r7, lr}
10001d32:	b082      	sub	sp, #8
10001d34:	af00      	add	r7, sp, #0
10001d36:	6078      	str	r0, [r7, #4]
10001d38:	687b      	ldr	r3, [r7, #4]
10001d3a:	1c18      	adds	r0, r3, #0
10001d3c:	46bd      	mov	sp, r7
10001d3e:	b002      	add	sp, #8
10001d40:	bd80      	pop	{r7, pc}
10001d42:	46c0      	nop			; (mov r8, r8)

10001d44 <_ZN9__gnu_cxx13new_allocatorIP13ShiftRegisterE8allocateEjPKv>:
10001d44:	b580      	push	{r7, lr}
10001d46:	b084      	sub	sp, #16
10001d48:	af00      	add	r7, sp, #0
10001d4a:	60f8      	str	r0, [r7, #12]
10001d4c:	60b9      	str	r1, [r7, #8]
10001d4e:	607a      	str	r2, [r7, #4]
10001d50:	68fb      	ldr	r3, [r7, #12]
10001d52:	1c18      	adds	r0, r3, #0
10001d54:	f000 f850 	bl	10001df8 <_ZNK9__gnu_cxx13new_allocatorIP13ShiftRegisterE8max_sizeEv>
10001d58:	1c02      	adds	r2, r0, #0
10001d5a:	68bb      	ldr	r3, [r7, #8]
10001d5c:	429a      	cmp	r2, r3
10001d5e:	419b      	sbcs	r3, r3
10001d60:	425b      	negs	r3, r3
10001d62:	b2db      	uxtb	r3, r3
10001d64:	2b00      	cmp	r3, #0
10001d66:	d001      	beq.n	10001d6c <_ZN9__gnu_cxx13new_allocatorIP13ShiftRegisterE8allocateEjPKv+0x28>
10001d68:	f002 fa2c 	bl	100041c4 <_ZSt17__throw_bad_allocv>
10001d6c:	68bb      	ldr	r3, [r7, #8]
10001d6e:	009b      	lsls	r3, r3, #2
10001d70:	1c18      	adds	r0, r3, #0
10001d72:	f002 fa0b 	bl	1000418c <_Znwj>
10001d76:	1c03      	adds	r3, r0, #0
10001d78:	1c18      	adds	r0, r3, #0
10001d7a:	46bd      	mov	sp, r7
10001d7c:	b004      	add	sp, #16
10001d7e:	bd80      	pop	{r7, pc}

10001d80 <_ZSt18uninitialized_copyIPP13ShiftRegisterS2_ET0_T_S4_S3_>:
10001d80:	b580      	push	{r7, lr}
10001d82:	b086      	sub	sp, #24
10001d84:	af00      	add	r7, sp, #0
10001d86:	60f8      	str	r0, [r7, #12]
10001d88:	60b9      	str	r1, [r7, #8]
10001d8a:	607a      	str	r2, [r7, #4]
10001d8c:	2317      	movs	r3, #23
10001d8e:	18fb      	adds	r3, r7, r3
10001d90:	2201      	movs	r2, #1
10001d92:	701a      	strb	r2, [r3, #0]
10001d94:	68f9      	ldr	r1, [r7, #12]
10001d96:	68ba      	ldr	r2, [r7, #8]
10001d98:	687b      	ldr	r3, [r7, #4]
10001d9a:	1c08      	adds	r0, r1, #0
10001d9c:	1c11      	adds	r1, r2, #0
10001d9e:	1c1a      	adds	r2, r3, #0
10001da0:	f000 f836 	bl	10001e10 <_ZNSt20__uninitialized_copyILb1EE13__uninit_copyIPP13ShiftRegisterS4_EET0_T_S6_S5_>
10001da4:	1c03      	adds	r3, r0, #0
10001da6:	1c18      	adds	r0, r3, #0
10001da8:	46bd      	mov	sp, r7
10001daa:	b006      	add	sp, #24
10001dac:	bd80      	pop	{r7, pc}
10001dae:	46c0      	nop			; (mov r8, r8)

10001db0 <_ZNSt20__copy_move_backwardILb0ELb1ESt26random_access_iterator_tagE13__copy_move_bIP13ShiftRegisterEEPT_PKS5_S8_S6_>:
10001db0:	b580      	push	{r7, lr}
10001db2:	b086      	sub	sp, #24
10001db4:	af00      	add	r7, sp, #0
10001db6:	60f8      	str	r0, [r7, #12]
10001db8:	60b9      	str	r1, [r7, #8]
10001dba:	607a      	str	r2, [r7, #4]
10001dbc:	68ba      	ldr	r2, [r7, #8]
10001dbe:	68fb      	ldr	r3, [r7, #12]
10001dc0:	1ad3      	subs	r3, r2, r3
10001dc2:	109b      	asrs	r3, r3, #2
10001dc4:	617b      	str	r3, [r7, #20]
10001dc6:	697b      	ldr	r3, [r7, #20]
10001dc8:	2b00      	cmp	r3, #0
10001dca:	d00c      	beq.n	10001de6 <_ZNSt20__copy_move_backwardILb0ELb1ESt26random_access_iterator_tagE13__copy_move_bIP13ShiftRegisterEEPT_PKS5_S8_S6_+0x36>
10001dcc:	697b      	ldr	r3, [r7, #20]
10001dce:	009b      	lsls	r3, r3, #2
10001dd0:	425b      	negs	r3, r3
10001dd2:	687a      	ldr	r2, [r7, #4]
10001dd4:	18d1      	adds	r1, r2, r3
10001dd6:	697b      	ldr	r3, [r7, #20]
10001dd8:	009b      	lsls	r3, r3, #2
10001dda:	68fa      	ldr	r2, [r7, #12]
10001ddc:	1c08      	adds	r0, r1, #0
10001dde:	1c11      	adds	r1, r2, #0
10001de0:	1c1a      	adds	r2, r3, #0
10001de2:	f002 fb93 	bl	1000450c <memmove>
10001de6:	697b      	ldr	r3, [r7, #20]
10001de8:	009b      	lsls	r3, r3, #2
10001dea:	425b      	negs	r3, r3
10001dec:	687a      	ldr	r2, [r7, #4]
10001dee:	18d3      	adds	r3, r2, r3
10001df0:	1c18      	adds	r0, r3, #0
10001df2:	46bd      	mov	sp, r7
10001df4:	b006      	add	sp, #24
10001df6:	bd80      	pop	{r7, pc}

10001df8 <_ZNK9__gnu_cxx13new_allocatorIP13ShiftRegisterE8max_sizeEv>:
10001df8:	b580      	push	{r7, lr}
10001dfa:	b082      	sub	sp, #8
10001dfc:	af00      	add	r7, sp, #0
10001dfe:	6078      	str	r0, [r7, #4]
10001e00:	4b02      	ldr	r3, [pc, #8]	; (10001e0c <_ZNK9__gnu_cxx13new_allocatorIP13ShiftRegisterE8max_sizeEv+0x14>)
10001e02:	1c18      	adds	r0, r3, #0
10001e04:	46bd      	mov	sp, r7
10001e06:	b002      	add	sp, #8
10001e08:	bd80      	pop	{r7, pc}
10001e0a:	46c0      	nop			; (mov r8, r8)
10001e0c:	3fffffff 	.word	0x3fffffff

10001e10 <_ZNSt20__uninitialized_copyILb1EE13__uninit_copyIPP13ShiftRegisterS4_EET0_T_S6_S5_>:
10001e10:	b580      	push	{r7, lr}
10001e12:	b084      	sub	sp, #16
10001e14:	af00      	add	r7, sp, #0
10001e16:	60f8      	str	r0, [r7, #12]
10001e18:	60b9      	str	r1, [r7, #8]
10001e1a:	607a      	str	r2, [r7, #4]
10001e1c:	68f9      	ldr	r1, [r7, #12]
10001e1e:	68ba      	ldr	r2, [r7, #8]
10001e20:	687b      	ldr	r3, [r7, #4]
10001e22:	1c08      	adds	r0, r1, #0
10001e24:	1c11      	adds	r1, r2, #0
10001e26:	1c1a      	adds	r2, r3, #0
10001e28:	f000 f806 	bl	10001e38 <_ZSt4copyIPP13ShiftRegisterS2_ET0_T_S4_S3_>
10001e2c:	1c03      	adds	r3, r0, #0
10001e2e:	1c18      	adds	r0, r3, #0
10001e30:	46bd      	mov	sp, r7
10001e32:	b004      	add	sp, #16
10001e34:	bd80      	pop	{r7, pc}
10001e36:	46c0      	nop			; (mov r8, r8)

10001e38 <_ZSt4copyIPP13ShiftRegisterS2_ET0_T_S4_S3_>:
10001e38:	b590      	push	{r4, r7, lr}
10001e3a:	b085      	sub	sp, #20
10001e3c:	af00      	add	r7, sp, #0
10001e3e:	60f8      	str	r0, [r7, #12]
10001e40:	60b9      	str	r1, [r7, #8]
10001e42:	607a      	str	r2, [r7, #4]
10001e44:	68fb      	ldr	r3, [r7, #12]
10001e46:	1c18      	adds	r0, r3, #0
10001e48:	f7ff fea4 	bl	10001b94 <_ZSt12__miter_baseIPP13ShiftRegisterENSt11_Miter_baseIT_E13iterator_typeES4_>
10001e4c:	1c04      	adds	r4, r0, #0
10001e4e:	68bb      	ldr	r3, [r7, #8]
10001e50:	1c18      	adds	r0, r3, #0
10001e52:	f7ff fe9f 	bl	10001b94 <_ZSt12__miter_baseIPP13ShiftRegisterENSt11_Miter_baseIT_E13iterator_typeES4_>
10001e56:	1c02      	adds	r2, r0, #0
10001e58:	687b      	ldr	r3, [r7, #4]
10001e5a:	1c20      	adds	r0, r4, #0
10001e5c:	1c11      	adds	r1, r2, #0
10001e5e:	1c1a      	adds	r2, r3, #0
10001e60:	f000 f806 	bl	10001e70 <_ZSt14__copy_move_a2ILb0EPP13ShiftRegisterS2_ET1_T0_S4_S3_>
10001e64:	1c03      	adds	r3, r0, #0
10001e66:	1c18      	adds	r0, r3, #0
10001e68:	46bd      	mov	sp, r7
10001e6a:	b005      	add	sp, #20
10001e6c:	bd90      	pop	{r4, r7, pc}
10001e6e:	46c0      	nop			; (mov r8, r8)

10001e70 <_ZSt14__copy_move_a2ILb0EPP13ShiftRegisterS2_ET1_T0_S4_S3_>:
10001e70:	b5b0      	push	{r4, r5, r7, lr}
10001e72:	b084      	sub	sp, #16
10001e74:	af00      	add	r7, sp, #0
10001e76:	60f8      	str	r0, [r7, #12]
10001e78:	60b9      	str	r1, [r7, #8]
10001e7a:	607a      	str	r2, [r7, #4]
10001e7c:	68fb      	ldr	r3, [r7, #12]
10001e7e:	1c18      	adds	r0, r3, #0
10001e80:	f7ff ff22 	bl	10001cc8 <_ZSt12__niter_baseIPP13ShiftRegisterENSt11_Niter_baseIT_E13iterator_typeES4_>
10001e84:	1c05      	adds	r5, r0, #0
10001e86:	68bb      	ldr	r3, [r7, #8]
10001e88:	1c18      	adds	r0, r3, #0
10001e8a:	f7ff ff1d 	bl	10001cc8 <_ZSt12__niter_baseIPP13ShiftRegisterENSt11_Niter_baseIT_E13iterator_typeES4_>
10001e8e:	1c04      	adds	r4, r0, #0
10001e90:	687b      	ldr	r3, [r7, #4]
10001e92:	1c18      	adds	r0, r3, #0
10001e94:	f7ff ff18 	bl	10001cc8 <_ZSt12__niter_baseIPP13ShiftRegisterENSt11_Niter_baseIT_E13iterator_typeES4_>
10001e98:	1c03      	adds	r3, r0, #0
10001e9a:	1c28      	adds	r0, r5, #0
10001e9c:	1c21      	adds	r1, r4, #0
10001e9e:	1c1a      	adds	r2, r3, #0
10001ea0:	f000 f806 	bl	10001eb0 <_ZSt13__copy_move_aILb0EPP13ShiftRegisterS2_ET1_T0_S4_S3_>
10001ea4:	1c03      	adds	r3, r0, #0
10001ea6:	1c18      	adds	r0, r3, #0
10001ea8:	46bd      	mov	sp, r7
10001eaa:	b004      	add	sp, #16
10001eac:	bdb0      	pop	{r4, r5, r7, pc}
10001eae:	46c0      	nop			; (mov r8, r8)

10001eb0 <_ZSt13__copy_move_aILb0EPP13ShiftRegisterS2_ET1_T0_S4_S3_>:
10001eb0:	b580      	push	{r7, lr}
10001eb2:	b086      	sub	sp, #24
10001eb4:	af00      	add	r7, sp, #0
10001eb6:	60f8      	str	r0, [r7, #12]
10001eb8:	60b9      	str	r1, [r7, #8]
10001eba:	607a      	str	r2, [r7, #4]
10001ebc:	2317      	movs	r3, #23
10001ebe:	18fb      	adds	r3, r7, r3
10001ec0:	2201      	movs	r2, #1
10001ec2:	701a      	strb	r2, [r3, #0]
10001ec4:	68f9      	ldr	r1, [r7, #12]
10001ec6:	68ba      	ldr	r2, [r7, #8]
10001ec8:	687b      	ldr	r3, [r7, #4]
10001eca:	1c08      	adds	r0, r1, #0
10001ecc:	1c11      	adds	r1, r2, #0
10001ece:	1c1a      	adds	r2, r3, #0
10001ed0:	f000 f806 	bl	10001ee0 <_ZNSt11__copy_moveILb0ELb1ESt26random_access_iterator_tagE8__copy_mIP13ShiftRegisterEEPT_PKS5_S8_S6_>
10001ed4:	1c03      	adds	r3, r0, #0
10001ed6:	1c18      	adds	r0, r3, #0
10001ed8:	46bd      	mov	sp, r7
10001eda:	b006      	add	sp, #24
10001edc:	bd80      	pop	{r7, pc}
10001ede:	46c0      	nop			; (mov r8, r8)

10001ee0 <_ZNSt11__copy_moveILb0ELb1ESt26random_access_iterator_tagE8__copy_mIP13ShiftRegisterEEPT_PKS5_S8_S6_>:
10001ee0:	b580      	push	{r7, lr}
10001ee2:	b086      	sub	sp, #24
10001ee4:	af00      	add	r7, sp, #0
10001ee6:	60f8      	str	r0, [r7, #12]
10001ee8:	60b9      	str	r1, [r7, #8]
10001eea:	607a      	str	r2, [r7, #4]
10001eec:	68ba      	ldr	r2, [r7, #8]
10001eee:	68fb      	ldr	r3, [r7, #12]
10001ef0:	1ad3      	subs	r3, r2, r3
10001ef2:	109b      	asrs	r3, r3, #2
10001ef4:	617b      	str	r3, [r7, #20]
10001ef6:	697b      	ldr	r3, [r7, #20]
10001ef8:	2b00      	cmp	r3, #0
10001efa:	d008      	beq.n	10001f0e <_ZNSt11__copy_moveILb0ELb1ESt26random_access_iterator_tagE8__copy_mIP13ShiftRegisterEEPT_PKS5_S8_S6_+0x2e>
10001efc:	697b      	ldr	r3, [r7, #20]
10001efe:	009b      	lsls	r3, r3, #2
10001f00:	6879      	ldr	r1, [r7, #4]
10001f02:	68fa      	ldr	r2, [r7, #12]
10001f04:	1c08      	adds	r0, r1, #0
10001f06:	1c11      	adds	r1, r2, #0
10001f08:	1c1a      	adds	r2, r3, #0
10001f0a:	f002 faff 	bl	1000450c <memmove>
10001f0e:	697b      	ldr	r3, [r7, #20]
10001f10:	009b      	lsls	r3, r3, #2
10001f12:	687a      	ldr	r2, [r7, #4]
10001f14:	18d3      	adds	r3, r2, r3
10001f16:	1c18      	adds	r0, r3, #0
10001f18:	46bd      	mov	sp, r7
10001f1a:	b006      	add	sp, #24
10001f1c:	bd80      	pop	{r7, pc}
10001f1e:	46c0      	nop			; (mov r8, r8)

10001f20 <_ZNSt6vectorIhSaIhEEC1Ev>:
10001f20:	b580      	push	{r7, lr}
10001f22:	b082      	sub	sp, #8
10001f24:	af00      	add	r7, sp, #0
10001f26:	6078      	str	r0, [r7, #4]
10001f28:	687b      	ldr	r3, [r7, #4]
10001f2a:	1c18      	adds	r0, r3, #0
10001f2c:	f000 f874 	bl	10002018 <_ZNSt12_Vector_baseIhSaIhEEC1Ev>
10001f30:	687b      	ldr	r3, [r7, #4]
10001f32:	1c18      	adds	r0, r3, #0
10001f34:	46bd      	mov	sp, r7
10001f36:	b002      	add	sp, #8
10001f38:	bd80      	pop	{r7, pc}
10001f3a:	46c0      	nop			; (mov r8, r8)

10001f3c <_ZNSt6vectorIhSaIhEED1Ev>:
10001f3c:	b5b0      	push	{r4, r5, r7, lr}
10001f3e:	b082      	sub	sp, #8
10001f40:	af00      	add	r7, sp, #0
10001f42:	6078      	str	r0, [r7, #4]
10001f44:	687b      	ldr	r3, [r7, #4]
10001f46:	681d      	ldr	r5, [r3, #0]
10001f48:	687b      	ldr	r3, [r7, #4]
10001f4a:	685c      	ldr	r4, [r3, #4]
10001f4c:	687b      	ldr	r3, [r7, #4]
10001f4e:	1c18      	adds	r0, r3, #0
10001f50:	f000 f88c 	bl	1000206c <_ZNSt12_Vector_baseIhSaIhEE19_M_get_Tp_allocatorEv>
10001f54:	1c03      	adds	r3, r0, #0
10001f56:	1c28      	adds	r0, r5, #0
10001f58:	1c21      	adds	r1, r4, #0
10001f5a:	1c1a      	adds	r2, r3, #0
10001f5c:	f000 f890 	bl	10002080 <_ZSt8_DestroyIPhhEvT_S1_RSaIT0_E>
10001f60:	687b      	ldr	r3, [r7, #4]
10001f62:	1c18      	adds	r0, r3, #0
10001f64:	f000 f866 	bl	10002034 <_ZNSt12_Vector_baseIhSaIhEED1Ev>
10001f68:	687b      	ldr	r3, [r7, #4]
10001f6a:	1c18      	adds	r0, r3, #0
10001f6c:	46bd      	mov	sp, r7
10001f6e:	b002      	add	sp, #8
10001f70:	bdb0      	pop	{r4, r5, r7, pc}
10001f72:	46c0      	nop			; (mov r8, r8)

10001f74 <_ZNSt6vectorIhSaIhEE9push_backERKh>:
10001f74:	b580      	push	{r7, lr}
10001f76:	b082      	sub	sp, #8
10001f78:	af00      	add	r7, sp, #0
10001f7a:	6078      	str	r0, [r7, #4]
10001f7c:	6039      	str	r1, [r7, #0]
10001f7e:	687b      	ldr	r3, [r7, #4]
10001f80:	685a      	ldr	r2, [r3, #4]
10001f82:	687b      	ldr	r3, [r7, #4]
10001f84:	689b      	ldr	r3, [r3, #8]
10001f86:	429a      	cmp	r2, r3
10001f88:	d00e      	beq.n	10001fa8 <_ZNSt6vectorIhSaIhEE9push_backERKh+0x34>
10001f8a:	6879      	ldr	r1, [r7, #4]
10001f8c:	687b      	ldr	r3, [r7, #4]
10001f8e:	685a      	ldr	r2, [r3, #4]
10001f90:	683b      	ldr	r3, [r7, #0]
10001f92:	1c08      	adds	r0, r1, #0
10001f94:	1c11      	adds	r1, r2, #0
10001f96:	1c1a      	adds	r2, r3, #0
10001f98:	f000 f882 	bl	100020a0 <_ZN9__gnu_cxx14__alloc_traitsISaIhEE9constructIhEEvRS1_PhRKT_>
10001f9c:	687b      	ldr	r3, [r7, #4]
10001f9e:	685b      	ldr	r3, [r3, #4]
10001fa0:	1c5a      	adds	r2, r3, #1
10001fa2:	687b      	ldr	r3, [r7, #4]
10001fa4:	605a      	str	r2, [r3, #4]
10001fa6:	e00a      	b.n	10001fbe <_ZNSt6vectorIhSaIhEE9push_backERKh+0x4a>
10001fa8:	687b      	ldr	r3, [r7, #4]
10001faa:	1c18      	adds	r0, r3, #0
10001fac:	f000 f954 	bl	10002258 <_ZNSt6vectorIhSaIhEE3endEv>
10001fb0:	1c01      	adds	r1, r0, #0
10001fb2:	687a      	ldr	r2, [r7, #4]
10001fb4:	683b      	ldr	r3, [r7, #0]
10001fb6:	1c10      	adds	r0, r2, #0
10001fb8:	1c1a      	adds	r2, r3, #0
10001fba:	f000 f883 	bl	100020c4 <_ZNSt6vectorIhSaIhEE13_M_insert_auxEN9__gnu_cxx17__normal_iteratorIPhS1_EERKh>
10001fbe:	46bd      	mov	sp, r7
10001fc0:	b002      	add	sp, #8
10001fc2:	bd80      	pop	{r7, pc}

10001fc4 <_ZNSt6vectorIhSaIhEEixEj>:
10001fc4:	b580      	push	{r7, lr}
10001fc6:	b082      	sub	sp, #8
10001fc8:	af00      	add	r7, sp, #0
10001fca:	6078      	str	r0, [r7, #4]
10001fcc:	6039      	str	r1, [r7, #0]
10001fce:	687b      	ldr	r3, [r7, #4]
10001fd0:	681a      	ldr	r2, [r3, #0]
10001fd2:	683b      	ldr	r3, [r7, #0]
10001fd4:	18d3      	adds	r3, r2, r3
10001fd6:	1c18      	adds	r0, r3, #0
10001fd8:	46bd      	mov	sp, r7
10001fda:	b002      	add	sp, #8
10001fdc:	bd80      	pop	{r7, pc}
10001fde:	46c0      	nop			; (mov r8, r8)

10001fe0 <_ZNKSt6vectorIhSaIhEE4sizeEv>:
10001fe0:	b580      	push	{r7, lr}
10001fe2:	b082      	sub	sp, #8
10001fe4:	af00      	add	r7, sp, #0
10001fe6:	6078      	str	r0, [r7, #4]
10001fe8:	687b      	ldr	r3, [r7, #4]
10001fea:	685b      	ldr	r3, [r3, #4]
10001fec:	1c1a      	adds	r2, r3, #0
10001fee:	687b      	ldr	r3, [r7, #4]
10001ff0:	681b      	ldr	r3, [r3, #0]
10001ff2:	1ad3      	subs	r3, r2, r3
10001ff4:	1c18      	adds	r0, r3, #0
10001ff6:	46bd      	mov	sp, r7
10001ff8:	b002      	add	sp, #8
10001ffa:	bd80      	pop	{r7, pc}

10001ffc <_ZNSt12_Vector_baseIhSaIhEE12_Vector_implD1Ev>:
10001ffc:	b580      	push	{r7, lr}
10001ffe:	b082      	sub	sp, #8
10002000:	af00      	add	r7, sp, #0
10002002:	6078      	str	r0, [r7, #4]
10002004:	687b      	ldr	r3, [r7, #4]
10002006:	1c18      	adds	r0, r3, #0
10002008:	f000 f94e 	bl	100022a8 <_ZNSaIhED1Ev>
1000200c:	687b      	ldr	r3, [r7, #4]
1000200e:	1c18      	adds	r0, r3, #0
10002010:	46bd      	mov	sp, r7
10002012:	b002      	add	sp, #8
10002014:	bd80      	pop	{r7, pc}
10002016:	46c0      	nop			; (mov r8, r8)

10002018 <_ZNSt12_Vector_baseIhSaIhEEC1Ev>:
10002018:	b580      	push	{r7, lr}
1000201a:	b082      	sub	sp, #8
1000201c:	af00      	add	r7, sp, #0
1000201e:	6078      	str	r0, [r7, #4]
10002020:	687b      	ldr	r3, [r7, #4]
10002022:	1c18      	adds	r0, r3, #0
10002024:	f000 f92a 	bl	1000227c <_ZNSt12_Vector_baseIhSaIhEE12_Vector_implC1Ev>
10002028:	687b      	ldr	r3, [r7, #4]
1000202a:	1c18      	adds	r0, r3, #0
1000202c:	46bd      	mov	sp, r7
1000202e:	b002      	add	sp, #8
10002030:	bd80      	pop	{r7, pc}
10002032:	46c0      	nop			; (mov r8, r8)

10002034 <_ZNSt12_Vector_baseIhSaIhEED1Ev>:
10002034:	b590      	push	{r4, r7, lr}
10002036:	b083      	sub	sp, #12
10002038:	af00      	add	r7, sp, #0
1000203a:	6078      	str	r0, [r7, #4]
1000203c:	687b      	ldr	r3, [r7, #4]
1000203e:	681a      	ldr	r2, [r3, #0]
10002040:	687b      	ldr	r3, [r7, #4]
10002042:	689b      	ldr	r3, [r3, #8]
10002044:	1c19      	adds	r1, r3, #0
10002046:	687b      	ldr	r3, [r7, #4]
10002048:	681b      	ldr	r3, [r3, #0]
1000204a:	1acb      	subs	r3, r1, r3
1000204c:	1c1c      	adds	r4, r3, #0
1000204e:	687b      	ldr	r3, [r7, #4]
10002050:	1c18      	adds	r0, r3, #0
10002052:	1c11      	adds	r1, r2, #0
10002054:	1c22      	adds	r2, r4, #0
10002056:	f000 f935 	bl	100022c4 <_ZNSt12_Vector_baseIhSaIhEE13_M_deallocateEPhj>
1000205a:	687b      	ldr	r3, [r7, #4]
1000205c:	1c18      	adds	r0, r3, #0
1000205e:	f7ff ffcd 	bl	10001ffc <_ZNSt12_Vector_baseIhSaIhEE12_Vector_implD1Ev>
10002062:	687b      	ldr	r3, [r7, #4]
10002064:	1c18      	adds	r0, r3, #0
10002066:	46bd      	mov	sp, r7
10002068:	b003      	add	sp, #12
1000206a:	bd90      	pop	{r4, r7, pc}

1000206c <_ZNSt12_Vector_baseIhSaIhEE19_M_get_Tp_allocatorEv>:
1000206c:	b580      	push	{r7, lr}
1000206e:	b082      	sub	sp, #8
10002070:	af00      	add	r7, sp, #0
10002072:	6078      	str	r0, [r7, #4]
10002074:	687b      	ldr	r3, [r7, #4]
10002076:	1c18      	adds	r0, r3, #0
10002078:	46bd      	mov	sp, r7
1000207a:	b002      	add	sp, #8
1000207c:	bd80      	pop	{r7, pc}
1000207e:	46c0      	nop			; (mov r8, r8)

10002080 <_ZSt8_DestroyIPhhEvT_S1_RSaIT0_E>:
10002080:	b580      	push	{r7, lr}
10002082:	b084      	sub	sp, #16
10002084:	af00      	add	r7, sp, #0
10002086:	60f8      	str	r0, [r7, #12]
10002088:	60b9      	str	r1, [r7, #8]
1000208a:	607a      	str	r2, [r7, #4]
1000208c:	68fa      	ldr	r2, [r7, #12]
1000208e:	68bb      	ldr	r3, [r7, #8]
10002090:	1c10      	adds	r0, r2, #0
10002092:	1c19      	adds	r1, r3, #0
10002094:	f000 f92a 	bl	100022ec <_ZSt8_DestroyIPhEvT_S1_>
10002098:	46bd      	mov	sp, r7
1000209a:	b004      	add	sp, #16
1000209c:	bd80      	pop	{r7, pc}
1000209e:	46c0      	nop			; (mov r8, r8)

100020a0 <_ZN9__gnu_cxx14__alloc_traitsISaIhEE9constructIhEEvRS1_PhRKT_>:
100020a0:	b580      	push	{r7, lr}
100020a2:	b084      	sub	sp, #16
100020a4:	af00      	add	r7, sp, #0
100020a6:	60f8      	str	r0, [r7, #12]
100020a8:	60b9      	str	r1, [r7, #8]
100020aa:	607a      	str	r2, [r7, #4]
100020ac:	68f9      	ldr	r1, [r7, #12]
100020ae:	68ba      	ldr	r2, [r7, #8]
100020b0:	687b      	ldr	r3, [r7, #4]
100020b2:	1c08      	adds	r0, r1, #0
100020b4:	1c11      	adds	r1, r2, #0
100020b6:	1c1a      	adds	r2, r3, #0
100020b8:	f000 f926 	bl	10002308 <_ZN9__gnu_cxx13new_allocatorIhE9constructEPhRKh>
100020bc:	46bd      	mov	sp, r7
100020be:	b004      	add	sp, #16
100020c0:	bd80      	pop	{r7, pc}
100020c2:	46c0      	nop			; (mov r8, r8)

100020c4 <_ZNSt6vectorIhSaIhEE13_M_insert_auxEN9__gnu_cxx17__normal_iteratorIPhS1_EERKh>:
100020c4:	b5f0      	push	{r4, r5, r6, r7, lr}
100020c6:	b08b      	sub	sp, #44	; 0x2c
100020c8:	af00      	add	r7, sp, #0
100020ca:	60f8      	str	r0, [r7, #12]
100020cc:	60b9      	str	r1, [r7, #8]
100020ce:	607a      	str	r2, [r7, #4]
100020d0:	68fb      	ldr	r3, [r7, #12]
100020d2:	685a      	ldr	r2, [r3, #4]
100020d4:	68fb      	ldr	r3, [r7, #12]
100020d6:	689b      	ldr	r3, [r3, #8]
100020d8:	429a      	cmp	r2, r3
100020da:	d031      	beq.n	10002140 <_ZNSt6vectorIhSaIhEE13_M_insert_auxEN9__gnu_cxx17__normal_iteratorIPhS1_EERKh+0x7c>
100020dc:	68f9      	ldr	r1, [r7, #12]
100020de:	68fb      	ldr	r3, [r7, #12]
100020e0:	685a      	ldr	r2, [r3, #4]
100020e2:	68fb      	ldr	r3, [r7, #12]
100020e4:	685b      	ldr	r3, [r3, #4]
100020e6:	3b01      	subs	r3, #1
100020e8:	1c08      	adds	r0, r1, #0
100020ea:	1c11      	adds	r1, r2, #0
100020ec:	1c1a      	adds	r2, r3, #0
100020ee:	f7ff ffd7 	bl	100020a0 <_ZN9__gnu_cxx14__alloc_traitsISaIhEE9constructIhEEvRS1_PhRKT_>
100020f2:	68fb      	ldr	r3, [r7, #12]
100020f4:	685b      	ldr	r3, [r3, #4]
100020f6:	1c5a      	adds	r2, r3, #1
100020f8:	68fb      	ldr	r3, [r7, #12]
100020fa:	605a      	str	r2, [r3, #4]
100020fc:	2327      	movs	r3, #39	; 0x27
100020fe:	18fb      	adds	r3, r7, r3
10002100:	687a      	ldr	r2, [r7, #4]
10002102:	7812      	ldrb	r2, [r2, #0]
10002104:	701a      	strb	r2, [r3, #0]
10002106:	2308      	movs	r3, #8
10002108:	18fb      	adds	r3, r7, r3
1000210a:	1c18      	adds	r0, r3, #0
1000210c:	f000 f910 	bl	10002330 <_ZNK9__gnu_cxx17__normal_iteratorIPhSt6vectorIhSaIhEEE4baseEv>
10002110:	1c03      	adds	r3, r0, #0
10002112:	6819      	ldr	r1, [r3, #0]
10002114:	68fb      	ldr	r3, [r7, #12]
10002116:	685b      	ldr	r3, [r3, #4]
10002118:	1e9a      	subs	r2, r3, #2
1000211a:	68fb      	ldr	r3, [r7, #12]
1000211c:	685b      	ldr	r3, [r3, #4]
1000211e:	3b01      	subs	r3, #1
10002120:	1c08      	adds	r0, r1, #0
10002122:	1c11      	adds	r1, r2, #0
10002124:	1c1a      	adds	r2, r3, #0
10002126:	f000 f90d 	bl	10002344 <_ZSt13copy_backwardIPhS0_ET0_T_S2_S1_>
1000212a:	2308      	movs	r3, #8
1000212c:	18fb      	adds	r3, r7, r3
1000212e:	1c18      	adds	r0, r3, #0
10002130:	f000 f924 	bl	1000237c <_ZNK9__gnu_cxx17__normal_iteratorIPhSt6vectorIhSaIhEEEdeEv>
10002134:	1c02      	adds	r2, r0, #0
10002136:	2327      	movs	r3, #39	; 0x27
10002138:	18fb      	adds	r3, r7, r3
1000213a:	781b      	ldrb	r3, [r3, #0]
1000213c:	7013      	strb	r3, [r2, #0]
1000213e:	e086      	b.n	1000224e <_ZNSt6vectorIhSaIhEE13_M_insert_auxEN9__gnu_cxx17__normal_iteratorIPhS1_EERKh+0x18a>
10002140:	68fa      	ldr	r2, [r7, #12]
10002142:	4b44      	ldr	r3, [pc, #272]	; (10002254 <_ZNSt6vectorIhSaIhEE13_M_insert_auxEN9__gnu_cxx17__normal_iteratorIPhS1_EERKh+0x190>)
10002144:	1c10      	adds	r0, r2, #0
10002146:	2101      	movs	r1, #1
10002148:	1c1a      	adds	r2, r3, #0
1000214a:	f000 f921 	bl	10002390 <_ZNKSt6vectorIhSaIhEE12_M_check_lenEjPKc>
1000214e:	1c03      	adds	r3, r0, #0
10002150:	623b      	str	r3, [r7, #32]
10002152:	68fb      	ldr	r3, [r7, #12]
10002154:	1c18      	adds	r0, r3, #0
10002156:	f000 f969 	bl	1000242c <_ZNSt6vectorIhSaIhEE5beginEv>
1000215a:	1c03      	adds	r3, r0, #0
1000215c:	613b      	str	r3, [r7, #16]
1000215e:	2308      	movs	r3, #8
10002160:	18fa      	adds	r2, r7, r3
10002162:	2310      	movs	r3, #16
10002164:	18fb      	adds	r3, r7, r3
10002166:	1c10      	adds	r0, r2, #0
10002168:	1c19      	adds	r1, r3, #0
1000216a:	f000 f96f 	bl	1000244c <_ZN9__gnu_cxxmiIPhSt6vectorIhSaIhEEEENS_17__normal_iteratorIT_T0_E15difference_typeERKS8_SB_>
1000216e:	1c03      	adds	r3, r0, #0
10002170:	61fb      	str	r3, [r7, #28]
10002172:	68fa      	ldr	r2, [r7, #12]
10002174:	6a3b      	ldr	r3, [r7, #32]
10002176:	1c10      	adds	r0, r2, #0
10002178:	1c19      	adds	r1, r3, #0
1000217a:	f000 f97f 	bl	1000247c <_ZNSt12_Vector_baseIhSaIhEE11_M_allocateEj>
1000217e:	1c03      	adds	r3, r0, #0
10002180:	61bb      	str	r3, [r7, #24]
10002182:	69bb      	ldr	r3, [r7, #24]
10002184:	617b      	str	r3, [r7, #20]
10002186:	68f9      	ldr	r1, [r7, #12]
10002188:	69ba      	ldr	r2, [r7, #24]
1000218a:	69fb      	ldr	r3, [r7, #28]
1000218c:	18d2      	adds	r2, r2, r3
1000218e:	687b      	ldr	r3, [r7, #4]
10002190:	1c08      	adds	r0, r1, #0
10002192:	1c11      	adds	r1, r2, #0
10002194:	1c1a      	adds	r2, r3, #0
10002196:	f7ff ff83 	bl	100020a0 <_ZN9__gnu_cxx14__alloc_traitsISaIhEE9constructIhEEvRS1_PhRKT_>
1000219a:	2300      	movs	r3, #0
1000219c:	617b      	str	r3, [r7, #20]
1000219e:	68fb      	ldr	r3, [r7, #12]
100021a0:	681d      	ldr	r5, [r3, #0]
100021a2:	2308      	movs	r3, #8
100021a4:	18fb      	adds	r3, r7, r3
100021a6:	1c18      	adds	r0, r3, #0
100021a8:	f000 f8c2 	bl	10002330 <_ZNK9__gnu_cxx17__normal_iteratorIPhSt6vectorIhSaIhEEE4baseEv>
100021ac:	1c03      	adds	r3, r0, #0
100021ae:	681c      	ldr	r4, [r3, #0]
100021b0:	68fb      	ldr	r3, [r7, #12]
100021b2:	1c18      	adds	r0, r3, #0
100021b4:	f7ff ff5a 	bl	1000206c <_ZNSt12_Vector_baseIhSaIhEE19_M_get_Tp_allocatorEv>
100021b8:	1c06      	adds	r6, r0, #0
100021ba:	69bb      	ldr	r3, [r7, #24]
100021bc:	1c28      	adds	r0, r5, #0
100021be:	1c21      	adds	r1, r4, #0
100021c0:	1c1a      	adds	r2, r3, #0
100021c2:	1c33      	adds	r3, r6, #0
100021c4:	f000 f970 	bl	100024a8 <_ZSt34__uninitialized_move_if_noexcept_aIPhS0_SaIhEET0_T_S3_S2_RT1_>
100021c8:	1c03      	adds	r3, r0, #0
100021ca:	617b      	str	r3, [r7, #20]
100021cc:	697b      	ldr	r3, [r7, #20]
100021ce:	3301      	adds	r3, #1
100021d0:	617b      	str	r3, [r7, #20]
100021d2:	2308      	movs	r3, #8
100021d4:	18fb      	adds	r3, r7, r3
100021d6:	1c18      	adds	r0, r3, #0
100021d8:	f000 f8aa 	bl	10002330 <_ZNK9__gnu_cxx17__normal_iteratorIPhSt6vectorIhSaIhEEE4baseEv>
100021dc:	1c03      	adds	r3, r0, #0
100021de:	681d      	ldr	r5, [r3, #0]
100021e0:	68fb      	ldr	r3, [r7, #12]
100021e2:	685c      	ldr	r4, [r3, #4]
100021e4:	68fb      	ldr	r3, [r7, #12]
100021e6:	1c18      	adds	r0, r3, #0
100021e8:	f7ff ff40 	bl	1000206c <_ZNSt12_Vector_baseIhSaIhEE19_M_get_Tp_allocatorEv>
100021ec:	1c06      	adds	r6, r0, #0
100021ee:	697b      	ldr	r3, [r7, #20]
100021f0:	1c28      	adds	r0, r5, #0
100021f2:	1c21      	adds	r1, r4, #0
100021f4:	1c1a      	adds	r2, r3, #0
100021f6:	1c33      	adds	r3, r6, #0
100021f8:	f000 f956 	bl	100024a8 <_ZSt34__uninitialized_move_if_noexcept_aIPhS0_SaIhEET0_T_S3_S2_RT1_>
100021fc:	1c03      	adds	r3, r0, #0
100021fe:	617b      	str	r3, [r7, #20]
10002200:	68fb      	ldr	r3, [r7, #12]
10002202:	681d      	ldr	r5, [r3, #0]
10002204:	68fb      	ldr	r3, [r7, #12]
10002206:	685c      	ldr	r4, [r3, #4]
10002208:	68fb      	ldr	r3, [r7, #12]
1000220a:	1c18      	adds	r0, r3, #0
1000220c:	f7ff ff2e 	bl	1000206c <_ZNSt12_Vector_baseIhSaIhEE19_M_get_Tp_allocatorEv>
10002210:	1c03      	adds	r3, r0, #0
10002212:	1c28      	adds	r0, r5, #0
10002214:	1c21      	adds	r1, r4, #0
10002216:	1c1a      	adds	r2, r3, #0
10002218:	f7ff ff32 	bl	10002080 <_ZSt8_DestroyIPhhEvT_S1_RSaIT0_E>
1000221c:	68f9      	ldr	r1, [r7, #12]
1000221e:	68fb      	ldr	r3, [r7, #12]
10002220:	681a      	ldr	r2, [r3, #0]
10002222:	68fb      	ldr	r3, [r7, #12]
10002224:	689b      	ldr	r3, [r3, #8]
10002226:	1c18      	adds	r0, r3, #0
10002228:	68fb      	ldr	r3, [r7, #12]
1000222a:	681b      	ldr	r3, [r3, #0]
1000222c:	1ac3      	subs	r3, r0, r3
1000222e:	1c08      	adds	r0, r1, #0
10002230:	1c11      	adds	r1, r2, #0
10002232:	1c1a      	adds	r2, r3, #0
10002234:	f000 f846 	bl	100022c4 <_ZNSt12_Vector_baseIhSaIhEE13_M_deallocateEPhj>
10002238:	68fb      	ldr	r3, [r7, #12]
1000223a:	69ba      	ldr	r2, [r7, #24]
1000223c:	601a      	str	r2, [r3, #0]
1000223e:	68fb      	ldr	r3, [r7, #12]
10002240:	697a      	ldr	r2, [r7, #20]
10002242:	605a      	str	r2, [r3, #4]
10002244:	69ba      	ldr	r2, [r7, #24]
10002246:	6a3b      	ldr	r3, [r7, #32]
10002248:	18d2      	adds	r2, r2, r3
1000224a:	68fb      	ldr	r3, [r7, #12]
1000224c:	609a      	str	r2, [r3, #8]
1000224e:	46bd      	mov	sp, r7
10002250:	b00b      	add	sp, #44	; 0x2c
10002252:	bdf0      	pop	{r4, r5, r6, r7, pc}
10002254:	100047c0 	.word	0x100047c0

10002258 <_ZNSt6vectorIhSaIhEE3endEv>:
10002258:	b580      	push	{r7, lr}
1000225a:	b084      	sub	sp, #16
1000225c:	af00      	add	r7, sp, #0
1000225e:	6078      	str	r0, [r7, #4]
10002260:	687b      	ldr	r3, [r7, #4]
10002262:	3304      	adds	r3, #4
10002264:	220c      	movs	r2, #12
10002266:	18ba      	adds	r2, r7, r2
10002268:	1c10      	adds	r0, r2, #0
1000226a:	1c19      	adds	r1, r3, #0
1000226c:	f000 f92e 	bl	100024cc <_ZN9__gnu_cxx17__normal_iteratorIPhSt6vectorIhSaIhEEEC1ERKS1_>
10002270:	68fb      	ldr	r3, [r7, #12]
10002272:	1c18      	adds	r0, r3, #0
10002274:	46bd      	mov	sp, r7
10002276:	b004      	add	sp, #16
10002278:	bd80      	pop	{r7, pc}
1000227a:	46c0      	nop			; (mov r8, r8)

1000227c <_ZNSt12_Vector_baseIhSaIhEE12_Vector_implC1Ev>:
1000227c:	b580      	push	{r7, lr}
1000227e:	b082      	sub	sp, #8
10002280:	af00      	add	r7, sp, #0
10002282:	6078      	str	r0, [r7, #4]
10002284:	687b      	ldr	r3, [r7, #4]
10002286:	1c18      	adds	r0, r3, #0
10002288:	f000 f92e 	bl	100024e8 <_ZNSaIhEC1Ev>
1000228c:	687b      	ldr	r3, [r7, #4]
1000228e:	2200      	movs	r2, #0
10002290:	601a      	str	r2, [r3, #0]
10002292:	687b      	ldr	r3, [r7, #4]
10002294:	2200      	movs	r2, #0
10002296:	605a      	str	r2, [r3, #4]
10002298:	687b      	ldr	r3, [r7, #4]
1000229a:	2200      	movs	r2, #0
1000229c:	609a      	str	r2, [r3, #8]
1000229e:	687b      	ldr	r3, [r7, #4]
100022a0:	1c18      	adds	r0, r3, #0
100022a2:	46bd      	mov	sp, r7
100022a4:	b002      	add	sp, #8
100022a6:	bd80      	pop	{r7, pc}

100022a8 <_ZNSaIhED1Ev>:
100022a8:	b580      	push	{r7, lr}
100022aa:	b082      	sub	sp, #8
100022ac:	af00      	add	r7, sp, #0
100022ae:	6078      	str	r0, [r7, #4]
100022b0:	687b      	ldr	r3, [r7, #4]
100022b2:	1c18      	adds	r0, r3, #0
100022b4:	f000 f926 	bl	10002504 <_ZN9__gnu_cxx13new_allocatorIhED1Ev>
100022b8:	687b      	ldr	r3, [r7, #4]
100022ba:	1c18      	adds	r0, r3, #0
100022bc:	46bd      	mov	sp, r7
100022be:	b002      	add	sp, #8
100022c0:	bd80      	pop	{r7, pc}
100022c2:	46c0      	nop			; (mov r8, r8)

100022c4 <_ZNSt12_Vector_baseIhSaIhEE13_M_deallocateEPhj>:
100022c4:	b580      	push	{r7, lr}
100022c6:	b084      	sub	sp, #16
100022c8:	af00      	add	r7, sp, #0
100022ca:	60f8      	str	r0, [r7, #12]
100022cc:	60b9      	str	r1, [r7, #8]
100022ce:	607a      	str	r2, [r7, #4]
100022d0:	68bb      	ldr	r3, [r7, #8]
100022d2:	2b00      	cmp	r3, #0
100022d4:	d007      	beq.n	100022e6 <_ZNSt12_Vector_baseIhSaIhEE13_M_deallocateEPhj+0x22>
100022d6:	68f9      	ldr	r1, [r7, #12]
100022d8:	68ba      	ldr	r2, [r7, #8]
100022da:	687b      	ldr	r3, [r7, #4]
100022dc:	1c08      	adds	r0, r1, #0
100022de:	1c11      	adds	r1, r2, #0
100022e0:	1c1a      	adds	r2, r3, #0
100022e2:	f000 f919 	bl	10002518 <_ZN9__gnu_cxx14__alloc_traitsISaIhEE10deallocateERS1_Phj>
100022e6:	46bd      	mov	sp, r7
100022e8:	b004      	add	sp, #16
100022ea:	bd80      	pop	{r7, pc}

100022ec <_ZSt8_DestroyIPhEvT_S1_>:
100022ec:	b580      	push	{r7, lr}
100022ee:	b082      	sub	sp, #8
100022f0:	af00      	add	r7, sp, #0
100022f2:	6078      	str	r0, [r7, #4]
100022f4:	6039      	str	r1, [r7, #0]
100022f6:	687a      	ldr	r2, [r7, #4]
100022f8:	683b      	ldr	r3, [r7, #0]
100022fa:	1c10      	adds	r0, r2, #0
100022fc:	1c19      	adds	r1, r3, #0
100022fe:	f000 f91d 	bl	1000253c <_ZNSt12_Destroy_auxILb1EE9__destroyIPhEEvT_S3_>
10002302:	46bd      	mov	sp, r7
10002304:	b002      	add	sp, #8
10002306:	bd80      	pop	{r7, pc}

10002308 <_ZN9__gnu_cxx13new_allocatorIhE9constructEPhRKh>:
10002308:	b580      	push	{r7, lr}
1000230a:	b084      	sub	sp, #16
1000230c:	af00      	add	r7, sp, #0
1000230e:	60f8      	str	r0, [r7, #12]
10002310:	60b9      	str	r1, [r7, #8]
10002312:	607a      	str	r2, [r7, #4]
10002314:	68bb      	ldr	r3, [r7, #8]
10002316:	2001      	movs	r0, #1
10002318:	1c19      	adds	r1, r3, #0
1000231a:	f7ff f85d 	bl	100013d8 <_ZnwjPv>
1000231e:	1e03      	subs	r3, r0, #0
10002320:	d002      	beq.n	10002328 <_ZN9__gnu_cxx13new_allocatorIhE9constructEPhRKh+0x20>
10002322:	687a      	ldr	r2, [r7, #4]
10002324:	7812      	ldrb	r2, [r2, #0]
10002326:	701a      	strb	r2, [r3, #0]
10002328:	46bd      	mov	sp, r7
1000232a:	b004      	add	sp, #16
1000232c:	bd80      	pop	{r7, pc}
1000232e:	46c0      	nop			; (mov r8, r8)

10002330 <_ZNK9__gnu_cxx17__normal_iteratorIPhSt6vectorIhSaIhEEE4baseEv>:
10002330:	b580      	push	{r7, lr}
10002332:	b082      	sub	sp, #8
10002334:	af00      	add	r7, sp, #0
10002336:	6078      	str	r0, [r7, #4]
10002338:	687b      	ldr	r3, [r7, #4]
1000233a:	1c18      	adds	r0, r3, #0
1000233c:	46bd      	mov	sp, r7
1000233e:	b002      	add	sp, #8
10002340:	bd80      	pop	{r7, pc}
10002342:	46c0      	nop			; (mov r8, r8)

10002344 <_ZSt13copy_backwardIPhS0_ET0_T_S2_S1_>:
10002344:	b590      	push	{r4, r7, lr}
10002346:	b085      	sub	sp, #20
10002348:	af00      	add	r7, sp, #0
1000234a:	60f8      	str	r0, [r7, #12]
1000234c:	60b9      	str	r1, [r7, #8]
1000234e:	607a      	str	r2, [r7, #4]
10002350:	68fb      	ldr	r3, [r7, #12]
10002352:	1c18      	adds	r0, r3, #0
10002354:	f000 f8fa 	bl	1000254c <_ZSt12__miter_baseIPhENSt11_Miter_baseIT_E13iterator_typeES2_>
10002358:	1c04      	adds	r4, r0, #0
1000235a:	68bb      	ldr	r3, [r7, #8]
1000235c:	1c18      	adds	r0, r3, #0
1000235e:	f000 f8f5 	bl	1000254c <_ZSt12__miter_baseIPhENSt11_Miter_baseIT_E13iterator_typeES2_>
10002362:	1c02      	adds	r2, r0, #0
10002364:	687b      	ldr	r3, [r7, #4]
10002366:	1c20      	adds	r0, r4, #0
10002368:	1c11      	adds	r1, r2, #0
1000236a:	1c1a      	adds	r2, r3, #0
1000236c:	f000 f8fc 	bl	10002568 <_ZSt23__copy_move_backward_a2ILb0EPhS0_ET1_T0_S2_S1_>
10002370:	1c03      	adds	r3, r0, #0
10002372:	1c18      	adds	r0, r3, #0
10002374:	46bd      	mov	sp, r7
10002376:	b005      	add	sp, #20
10002378:	bd90      	pop	{r4, r7, pc}
1000237a:	46c0      	nop			; (mov r8, r8)

1000237c <_ZNK9__gnu_cxx17__normal_iteratorIPhSt6vectorIhSaIhEEEdeEv>:
1000237c:	b580      	push	{r7, lr}
1000237e:	b082      	sub	sp, #8
10002380:	af00      	add	r7, sp, #0
10002382:	6078      	str	r0, [r7, #4]
10002384:	687b      	ldr	r3, [r7, #4]
10002386:	681b      	ldr	r3, [r3, #0]
10002388:	1c18      	adds	r0, r3, #0
1000238a:	46bd      	mov	sp, r7
1000238c:	b002      	add	sp, #8
1000238e:	bd80      	pop	{r7, pc}

10002390 <_ZNKSt6vectorIhSaIhEE12_M_check_lenEjPKc>:
10002390:	b590      	push	{r4, r7, lr}
10002392:	b087      	sub	sp, #28
10002394:	af00      	add	r7, sp, #0
10002396:	60f8      	str	r0, [r7, #12]
10002398:	60b9      	str	r1, [r7, #8]
1000239a:	607a      	str	r2, [r7, #4]
1000239c:	68fb      	ldr	r3, [r7, #12]
1000239e:	1c18      	adds	r0, r3, #0
100023a0:	f000 f902 	bl	100025a8 <_ZNKSt6vectorIhSaIhEE8max_sizeEv>
100023a4:	1c04      	adds	r4, r0, #0
100023a6:	68fb      	ldr	r3, [r7, #12]
100023a8:	1c18      	adds	r0, r3, #0
100023aa:	f7ff fe19 	bl	10001fe0 <_ZNKSt6vectorIhSaIhEE4sizeEv>
100023ae:	1c03      	adds	r3, r0, #0
100023b0:	1ae2      	subs	r2, r4, r3
100023b2:	68bb      	ldr	r3, [r7, #8]
100023b4:	429a      	cmp	r2, r3
100023b6:	419b      	sbcs	r3, r3
100023b8:	425b      	negs	r3, r3
100023ba:	b2db      	uxtb	r3, r3
100023bc:	2b00      	cmp	r3, #0
100023be:	d003      	beq.n	100023c8 <_ZNKSt6vectorIhSaIhEE12_M_check_lenEjPKc+0x38>
100023c0:	687b      	ldr	r3, [r7, #4]
100023c2:	1c18      	adds	r0, r3, #0
100023c4:	f001 ff01 	bl	100041ca <_ZSt20__throw_length_errorPKc>
100023c8:	68fb      	ldr	r3, [r7, #12]
100023ca:	1c18      	adds	r0, r3, #0
100023cc:	f7ff fe08 	bl	10001fe0 <_ZNKSt6vectorIhSaIhEE4sizeEv>
100023d0:	1c04      	adds	r4, r0, #0
100023d2:	68fb      	ldr	r3, [r7, #12]
100023d4:	1c18      	adds	r0, r3, #0
100023d6:	f7ff fe03 	bl	10001fe0 <_ZNKSt6vectorIhSaIhEE4sizeEv>
100023da:	1c03      	adds	r3, r0, #0
100023dc:	613b      	str	r3, [r7, #16]
100023de:	2310      	movs	r3, #16
100023e0:	18fa      	adds	r2, r7, r3
100023e2:	2308      	movs	r3, #8
100023e4:	18fb      	adds	r3, r7, r3
100023e6:	1c10      	adds	r0, r2, #0
100023e8:	1c19      	adds	r1, r3, #0
100023ea:	f7ff fc13 	bl	10001c14 <_ZSt3maxIjERKT_S2_S2_>
100023ee:	1c03      	adds	r3, r0, #0
100023f0:	681b      	ldr	r3, [r3, #0]
100023f2:	18e3      	adds	r3, r4, r3
100023f4:	617b      	str	r3, [r7, #20]
100023f6:	68fb      	ldr	r3, [r7, #12]
100023f8:	1c18      	adds	r0, r3, #0
100023fa:	f7ff fdf1 	bl	10001fe0 <_ZNKSt6vectorIhSaIhEE4sizeEv>
100023fe:	1e02      	subs	r2, r0, #0
10002400:	697b      	ldr	r3, [r7, #20]
10002402:	429a      	cmp	r2, r3
10002404:	d807      	bhi.n	10002416 <_ZNKSt6vectorIhSaIhEE12_M_check_lenEjPKc+0x86>
10002406:	68fb      	ldr	r3, [r7, #12]
10002408:	1c18      	adds	r0, r3, #0
1000240a:	f000 f8cd 	bl	100025a8 <_ZNKSt6vectorIhSaIhEE8max_sizeEv>
1000240e:	1e02      	subs	r2, r0, #0
10002410:	697b      	ldr	r3, [r7, #20]
10002412:	429a      	cmp	r2, r3
10002414:	d205      	bcs.n	10002422 <_ZNKSt6vectorIhSaIhEE12_M_check_lenEjPKc+0x92>
10002416:	68fb      	ldr	r3, [r7, #12]
10002418:	1c18      	adds	r0, r3, #0
1000241a:	f000 f8c5 	bl	100025a8 <_ZNKSt6vectorIhSaIhEE8max_sizeEv>
1000241e:	1c03      	adds	r3, r0, #0
10002420:	e000      	b.n	10002424 <_ZNKSt6vectorIhSaIhEE12_M_check_lenEjPKc+0x94>
10002422:	697b      	ldr	r3, [r7, #20]
10002424:	1c18      	adds	r0, r3, #0
10002426:	46bd      	mov	sp, r7
10002428:	b007      	add	sp, #28
1000242a:	bd90      	pop	{r4, r7, pc}

1000242c <_ZNSt6vectorIhSaIhEE5beginEv>:
1000242c:	b580      	push	{r7, lr}
1000242e:	b084      	sub	sp, #16
10002430:	af00      	add	r7, sp, #0
10002432:	6078      	str	r0, [r7, #4]
10002434:	687b      	ldr	r3, [r7, #4]
10002436:	220c      	movs	r2, #12
10002438:	18ba      	adds	r2, r7, r2
1000243a:	1c10      	adds	r0, r2, #0
1000243c:	1c19      	adds	r1, r3, #0
1000243e:	f000 f845 	bl	100024cc <_ZN9__gnu_cxx17__normal_iteratorIPhSt6vectorIhSaIhEEEC1ERKS1_>
10002442:	68fb      	ldr	r3, [r7, #12]
10002444:	1c18      	adds	r0, r3, #0
10002446:	46bd      	mov	sp, r7
10002448:	b004      	add	sp, #16
1000244a:	bd80      	pop	{r7, pc}

1000244c <_ZN9__gnu_cxxmiIPhSt6vectorIhSaIhEEEENS_17__normal_iteratorIT_T0_E15difference_typeERKS8_SB_>:
1000244c:	b590      	push	{r4, r7, lr}
1000244e:	b083      	sub	sp, #12
10002450:	af00      	add	r7, sp, #0
10002452:	6078      	str	r0, [r7, #4]
10002454:	6039      	str	r1, [r7, #0]
10002456:	687b      	ldr	r3, [r7, #4]
10002458:	1c18      	adds	r0, r3, #0
1000245a:	f7ff ff69 	bl	10002330 <_ZNK9__gnu_cxx17__normal_iteratorIPhSt6vectorIhSaIhEEE4baseEv>
1000245e:	1c03      	adds	r3, r0, #0
10002460:	681b      	ldr	r3, [r3, #0]
10002462:	1c1c      	adds	r4, r3, #0
10002464:	683b      	ldr	r3, [r7, #0]
10002466:	1c18      	adds	r0, r3, #0
10002468:	f7ff ff62 	bl	10002330 <_ZNK9__gnu_cxx17__normal_iteratorIPhSt6vectorIhSaIhEEE4baseEv>
1000246c:	1c03      	adds	r3, r0, #0
1000246e:	681b      	ldr	r3, [r3, #0]
10002470:	1ae3      	subs	r3, r4, r3
10002472:	1c18      	adds	r0, r3, #0
10002474:	46bd      	mov	sp, r7
10002476:	b003      	add	sp, #12
10002478:	bd90      	pop	{r4, r7, pc}
1000247a:	46c0      	nop			; (mov r8, r8)

1000247c <_ZNSt12_Vector_baseIhSaIhEE11_M_allocateEj>:
1000247c:	b580      	push	{r7, lr}
1000247e:	b082      	sub	sp, #8
10002480:	af00      	add	r7, sp, #0
10002482:	6078      	str	r0, [r7, #4]
10002484:	6039      	str	r1, [r7, #0]
10002486:	683b      	ldr	r3, [r7, #0]
10002488:	2b00      	cmp	r3, #0
1000248a:	d007      	beq.n	1000249c <_ZNSt12_Vector_baseIhSaIhEE11_M_allocateEj+0x20>
1000248c:	687a      	ldr	r2, [r7, #4]
1000248e:	683b      	ldr	r3, [r7, #0]
10002490:	1c10      	adds	r0, r2, #0
10002492:	1c19      	adds	r1, r3, #0
10002494:	f000 f89a 	bl	100025cc <_ZN9__gnu_cxx14__alloc_traitsISaIhEE8allocateERS1_j>
10002498:	1c03      	adds	r3, r0, #0
1000249a:	e000      	b.n	1000249e <_ZNSt12_Vector_baseIhSaIhEE11_M_allocateEj+0x22>
1000249c:	2300      	movs	r3, #0
1000249e:	1c18      	adds	r0, r3, #0
100024a0:	46bd      	mov	sp, r7
100024a2:	b002      	add	sp, #8
100024a4:	bd80      	pop	{r7, pc}
100024a6:	46c0      	nop			; (mov r8, r8)

100024a8 <_ZSt34__uninitialized_move_if_noexcept_aIPhS0_SaIhEET0_T_S3_S2_RT1_>:
100024a8:	b580      	push	{r7, lr}
100024aa:	b084      	sub	sp, #16
100024ac:	af00      	add	r7, sp, #0
100024ae:	60f8      	str	r0, [r7, #12]
100024b0:	60b9      	str	r1, [r7, #8]
100024b2:	607a      	str	r2, [r7, #4]
100024b4:	603b      	str	r3, [r7, #0]
100024b6:	68f8      	ldr	r0, [r7, #12]
100024b8:	68b9      	ldr	r1, [r7, #8]
100024ba:	687a      	ldr	r2, [r7, #4]
100024bc:	683b      	ldr	r3, [r7, #0]
100024be:	f000 f897 	bl	100025f0 <_ZSt22__uninitialized_copy_aIPhS0_hET0_T_S2_S1_RSaIT1_E>
100024c2:	1c03      	adds	r3, r0, #0
100024c4:	1c18      	adds	r0, r3, #0
100024c6:	46bd      	mov	sp, r7
100024c8:	b004      	add	sp, #16
100024ca:	bd80      	pop	{r7, pc}

100024cc <_ZN9__gnu_cxx17__normal_iteratorIPhSt6vectorIhSaIhEEEC1ERKS1_>:
100024cc:	b580      	push	{r7, lr}
100024ce:	b082      	sub	sp, #8
100024d0:	af00      	add	r7, sp, #0
100024d2:	6078      	str	r0, [r7, #4]
100024d4:	6039      	str	r1, [r7, #0]
100024d6:	683b      	ldr	r3, [r7, #0]
100024d8:	681a      	ldr	r2, [r3, #0]
100024da:	687b      	ldr	r3, [r7, #4]
100024dc:	601a      	str	r2, [r3, #0]
100024de:	687b      	ldr	r3, [r7, #4]
100024e0:	1c18      	adds	r0, r3, #0
100024e2:	46bd      	mov	sp, r7
100024e4:	b002      	add	sp, #8
100024e6:	bd80      	pop	{r7, pc}

100024e8 <_ZNSaIhEC1Ev>:
100024e8:	b580      	push	{r7, lr}
100024ea:	b082      	sub	sp, #8
100024ec:	af00      	add	r7, sp, #0
100024ee:	6078      	str	r0, [r7, #4]
100024f0:	687b      	ldr	r3, [r7, #4]
100024f2:	1c18      	adds	r0, r3, #0
100024f4:	f000 f890 	bl	10002618 <_ZN9__gnu_cxx13new_allocatorIhEC1Ev>
100024f8:	687b      	ldr	r3, [r7, #4]
100024fa:	1c18      	adds	r0, r3, #0
100024fc:	46bd      	mov	sp, r7
100024fe:	b002      	add	sp, #8
10002500:	bd80      	pop	{r7, pc}
10002502:	46c0      	nop			; (mov r8, r8)

10002504 <_ZN9__gnu_cxx13new_allocatorIhED1Ev>:
10002504:	b580      	push	{r7, lr}
10002506:	b082      	sub	sp, #8
10002508:	af00      	add	r7, sp, #0
1000250a:	6078      	str	r0, [r7, #4]
1000250c:	687b      	ldr	r3, [r7, #4]
1000250e:	1c18      	adds	r0, r3, #0
10002510:	46bd      	mov	sp, r7
10002512:	b002      	add	sp, #8
10002514:	bd80      	pop	{r7, pc}
10002516:	46c0      	nop			; (mov r8, r8)

10002518 <_ZN9__gnu_cxx14__alloc_traitsISaIhEE10deallocateERS1_Phj>:
10002518:	b580      	push	{r7, lr}
1000251a:	b084      	sub	sp, #16
1000251c:	af00      	add	r7, sp, #0
1000251e:	60f8      	str	r0, [r7, #12]
10002520:	60b9      	str	r1, [r7, #8]
10002522:	607a      	str	r2, [r7, #4]
10002524:	68f9      	ldr	r1, [r7, #12]
10002526:	68ba      	ldr	r2, [r7, #8]
10002528:	687b      	ldr	r3, [r7, #4]
1000252a:	1c08      	adds	r0, r1, #0
1000252c:	1c11      	adds	r1, r2, #0
1000252e:	1c1a      	adds	r2, r3, #0
10002530:	f000 f87c 	bl	1000262c <_ZN9__gnu_cxx13new_allocatorIhE10deallocateEPhj>
10002534:	46bd      	mov	sp, r7
10002536:	b004      	add	sp, #16
10002538:	bd80      	pop	{r7, pc}
1000253a:	46c0      	nop			; (mov r8, r8)

1000253c <_ZNSt12_Destroy_auxILb1EE9__destroyIPhEEvT_S3_>:
1000253c:	b580      	push	{r7, lr}
1000253e:	b082      	sub	sp, #8
10002540:	af00      	add	r7, sp, #0
10002542:	6078      	str	r0, [r7, #4]
10002544:	6039      	str	r1, [r7, #0]
10002546:	46bd      	mov	sp, r7
10002548:	b002      	add	sp, #8
1000254a:	bd80      	pop	{r7, pc}

1000254c <_ZSt12__miter_baseIPhENSt11_Miter_baseIT_E13iterator_typeES2_>:
1000254c:	b580      	push	{r7, lr}
1000254e:	b082      	sub	sp, #8
10002550:	af00      	add	r7, sp, #0
10002552:	6078      	str	r0, [r7, #4]
10002554:	687b      	ldr	r3, [r7, #4]
10002556:	1c18      	adds	r0, r3, #0
10002558:	f000 f876 	bl	10002648 <_ZNSt10_Iter_baseIPhLb0EE7_S_baseES0_>
1000255c:	1c03      	adds	r3, r0, #0
1000255e:	1c18      	adds	r0, r3, #0
10002560:	46bd      	mov	sp, r7
10002562:	b002      	add	sp, #8
10002564:	bd80      	pop	{r7, pc}
10002566:	46c0      	nop			; (mov r8, r8)

10002568 <_ZSt23__copy_move_backward_a2ILb0EPhS0_ET1_T0_S2_S1_>:
10002568:	b5b0      	push	{r4, r5, r7, lr}
1000256a:	b084      	sub	sp, #16
1000256c:	af00      	add	r7, sp, #0
1000256e:	60f8      	str	r0, [r7, #12]
10002570:	60b9      	str	r1, [r7, #8]
10002572:	607a      	str	r2, [r7, #4]
10002574:	68fb      	ldr	r3, [r7, #12]
10002576:	1c18      	adds	r0, r3, #0
10002578:	f000 f870 	bl	1000265c <_ZSt12__niter_baseIPhENSt11_Niter_baseIT_E13iterator_typeES2_>
1000257c:	1c05      	adds	r5, r0, #0
1000257e:	68bb      	ldr	r3, [r7, #8]
10002580:	1c18      	adds	r0, r3, #0
10002582:	f000 f86b 	bl	1000265c <_ZSt12__niter_baseIPhENSt11_Niter_baseIT_E13iterator_typeES2_>
10002586:	1c04      	adds	r4, r0, #0
10002588:	687b      	ldr	r3, [r7, #4]
1000258a:	1c18      	adds	r0, r3, #0
1000258c:	f000 f866 	bl	1000265c <_ZSt12__niter_baseIPhENSt11_Niter_baseIT_E13iterator_typeES2_>
10002590:	1c03      	adds	r3, r0, #0
10002592:	1c28      	adds	r0, r5, #0
10002594:	1c21      	adds	r1, r4, #0
10002596:	1c1a      	adds	r2, r3, #0
10002598:	f000 f86e 	bl	10002678 <_ZSt22__copy_move_backward_aILb0EPhS0_ET1_T0_S2_S1_>
1000259c:	1c03      	adds	r3, r0, #0
1000259e:	1c18      	adds	r0, r3, #0
100025a0:	46bd      	mov	sp, r7
100025a2:	b004      	add	sp, #16
100025a4:	bdb0      	pop	{r4, r5, r7, pc}
100025a6:	46c0      	nop			; (mov r8, r8)

100025a8 <_ZNKSt6vectorIhSaIhEE8max_sizeEv>:
100025a8:	b580      	push	{r7, lr}
100025aa:	b082      	sub	sp, #8
100025ac:	af00      	add	r7, sp, #0
100025ae:	6078      	str	r0, [r7, #4]
100025b0:	687b      	ldr	r3, [r7, #4]
100025b2:	1c18      	adds	r0, r3, #0
100025b4:	f000 f886 	bl	100026c4 <_ZNKSt12_Vector_baseIhSaIhEE19_M_get_Tp_allocatorEv>
100025b8:	1c03      	adds	r3, r0, #0
100025ba:	1c18      	adds	r0, r3, #0
100025bc:	f000 f874 	bl	100026a8 <_ZN9__gnu_cxx14__alloc_traitsISaIhEE8max_sizeERKS1_>
100025c0:	1c03      	adds	r3, r0, #0
100025c2:	1c18      	adds	r0, r3, #0
100025c4:	46bd      	mov	sp, r7
100025c6:	b002      	add	sp, #8
100025c8:	bd80      	pop	{r7, pc}
100025ca:	46c0      	nop			; (mov r8, r8)

100025cc <_ZN9__gnu_cxx14__alloc_traitsISaIhEE8allocateERS1_j>:
100025cc:	b580      	push	{r7, lr}
100025ce:	b082      	sub	sp, #8
100025d0:	af00      	add	r7, sp, #0
100025d2:	6078      	str	r0, [r7, #4]
100025d4:	6039      	str	r1, [r7, #0]
100025d6:	687a      	ldr	r2, [r7, #4]
100025d8:	683b      	ldr	r3, [r7, #0]
100025da:	1c10      	adds	r0, r2, #0
100025dc:	1c19      	adds	r1, r3, #0
100025de:	2200      	movs	r2, #0
100025e0:	f000 f87a 	bl	100026d8 <_ZN9__gnu_cxx13new_allocatorIhE8allocateEjPKv>
100025e4:	1c03      	adds	r3, r0, #0
100025e6:	1c18      	adds	r0, r3, #0
100025e8:	46bd      	mov	sp, r7
100025ea:	b002      	add	sp, #8
100025ec:	bd80      	pop	{r7, pc}
100025ee:	46c0      	nop			; (mov r8, r8)

100025f0 <_ZSt22__uninitialized_copy_aIPhS0_hET0_T_S2_S1_RSaIT1_E>:
100025f0:	b580      	push	{r7, lr}
100025f2:	b084      	sub	sp, #16
100025f4:	af00      	add	r7, sp, #0
100025f6:	60f8      	str	r0, [r7, #12]
100025f8:	60b9      	str	r1, [r7, #8]
100025fa:	607a      	str	r2, [r7, #4]
100025fc:	603b      	str	r3, [r7, #0]
100025fe:	68f9      	ldr	r1, [r7, #12]
10002600:	68ba      	ldr	r2, [r7, #8]
10002602:	687b      	ldr	r3, [r7, #4]
10002604:	1c08      	adds	r0, r1, #0
10002606:	1c11      	adds	r1, r2, #0
10002608:	1c1a      	adds	r2, r3, #0
1000260a:	f000 f883 	bl	10002714 <_ZSt18uninitialized_copyIPhS0_ET0_T_S2_S1_>
1000260e:	1c03      	adds	r3, r0, #0
10002610:	1c18      	adds	r0, r3, #0
10002612:	46bd      	mov	sp, r7
10002614:	b004      	add	sp, #16
10002616:	bd80      	pop	{r7, pc}

10002618 <_ZN9__gnu_cxx13new_allocatorIhEC1Ev>:
10002618:	b580      	push	{r7, lr}
1000261a:	b082      	sub	sp, #8
1000261c:	af00      	add	r7, sp, #0
1000261e:	6078      	str	r0, [r7, #4]
10002620:	687b      	ldr	r3, [r7, #4]
10002622:	1c18      	adds	r0, r3, #0
10002624:	46bd      	mov	sp, r7
10002626:	b002      	add	sp, #8
10002628:	bd80      	pop	{r7, pc}
1000262a:	46c0      	nop			; (mov r8, r8)

1000262c <_ZN9__gnu_cxx13new_allocatorIhE10deallocateEPhj>:
1000262c:	b580      	push	{r7, lr}
1000262e:	b084      	sub	sp, #16
10002630:	af00      	add	r7, sp, #0
10002632:	60f8      	str	r0, [r7, #12]
10002634:	60b9      	str	r1, [r7, #8]
10002636:	607a      	str	r2, [r7, #4]
10002638:	68bb      	ldr	r3, [r7, #8]
1000263a:	1c18      	adds	r0, r3, #0
1000263c:	f001 fdb8 	bl	100041b0 <_ZdlPv>
10002640:	46bd      	mov	sp, r7
10002642:	b004      	add	sp, #16
10002644:	bd80      	pop	{r7, pc}
10002646:	46c0      	nop			; (mov r8, r8)

10002648 <_ZNSt10_Iter_baseIPhLb0EE7_S_baseES0_>:
10002648:	b580      	push	{r7, lr}
1000264a:	b082      	sub	sp, #8
1000264c:	af00      	add	r7, sp, #0
1000264e:	6078      	str	r0, [r7, #4]
10002650:	687b      	ldr	r3, [r7, #4]
10002652:	1c18      	adds	r0, r3, #0
10002654:	46bd      	mov	sp, r7
10002656:	b002      	add	sp, #8
10002658:	bd80      	pop	{r7, pc}
1000265a:	46c0      	nop			; (mov r8, r8)

1000265c <_ZSt12__niter_baseIPhENSt11_Niter_baseIT_E13iterator_typeES2_>:
1000265c:	b580      	push	{r7, lr}
1000265e:	b082      	sub	sp, #8
10002660:	af00      	add	r7, sp, #0
10002662:	6078      	str	r0, [r7, #4]
10002664:	687b      	ldr	r3, [r7, #4]
10002666:	1c18      	adds	r0, r3, #0
10002668:	f7ff ffee 	bl	10002648 <_ZNSt10_Iter_baseIPhLb0EE7_S_baseES0_>
1000266c:	1c03      	adds	r3, r0, #0
1000266e:	1c18      	adds	r0, r3, #0
10002670:	46bd      	mov	sp, r7
10002672:	b002      	add	sp, #8
10002674:	bd80      	pop	{r7, pc}
10002676:	46c0      	nop			; (mov r8, r8)

10002678 <_ZSt22__copy_move_backward_aILb0EPhS0_ET1_T0_S2_S1_>:
10002678:	b580      	push	{r7, lr}
1000267a:	b086      	sub	sp, #24
1000267c:	af00      	add	r7, sp, #0
1000267e:	60f8      	str	r0, [r7, #12]
10002680:	60b9      	str	r1, [r7, #8]
10002682:	607a      	str	r2, [r7, #4]
10002684:	2317      	movs	r3, #23
10002686:	18fb      	adds	r3, r7, r3
10002688:	2201      	movs	r2, #1
1000268a:	701a      	strb	r2, [r3, #0]
1000268c:	68f9      	ldr	r1, [r7, #12]
1000268e:	68ba      	ldr	r2, [r7, #8]
10002690:	687b      	ldr	r3, [r7, #4]
10002692:	1c08      	adds	r0, r1, #0
10002694:	1c11      	adds	r1, r2, #0
10002696:	1c1a      	adds	r2, r3, #0
10002698:	f000 f854 	bl	10002744 <_ZNSt20__copy_move_backwardILb0ELb1ESt26random_access_iterator_tagE13__copy_move_bIhEEPT_PKS3_S6_S4_>
1000269c:	1c03      	adds	r3, r0, #0
1000269e:	1c18      	adds	r0, r3, #0
100026a0:	46bd      	mov	sp, r7
100026a2:	b006      	add	sp, #24
100026a4:	bd80      	pop	{r7, pc}
100026a6:	46c0      	nop			; (mov r8, r8)

100026a8 <_ZN9__gnu_cxx14__alloc_traitsISaIhEE8max_sizeERKS1_>:
100026a8:	b580      	push	{r7, lr}
100026aa:	b082      	sub	sp, #8
100026ac:	af00      	add	r7, sp, #0
100026ae:	6078      	str	r0, [r7, #4]
100026b0:	687b      	ldr	r3, [r7, #4]
100026b2:	1c18      	adds	r0, r3, #0
100026b4:	f000 f866 	bl	10002784 <_ZNK9__gnu_cxx13new_allocatorIhE8max_sizeEv>
100026b8:	1c03      	adds	r3, r0, #0
100026ba:	1c18      	adds	r0, r3, #0
100026bc:	46bd      	mov	sp, r7
100026be:	b002      	add	sp, #8
100026c0:	bd80      	pop	{r7, pc}
100026c2:	46c0      	nop			; (mov r8, r8)

100026c4 <_ZNKSt12_Vector_baseIhSaIhEE19_M_get_Tp_allocatorEv>:
100026c4:	b580      	push	{r7, lr}
100026c6:	b082      	sub	sp, #8
100026c8:	af00      	add	r7, sp, #0
100026ca:	6078      	str	r0, [r7, #4]
100026cc:	687b      	ldr	r3, [r7, #4]
100026ce:	1c18      	adds	r0, r3, #0
100026d0:	46bd      	mov	sp, r7
100026d2:	b002      	add	sp, #8
100026d4:	bd80      	pop	{r7, pc}
100026d6:	46c0      	nop			; (mov r8, r8)

100026d8 <_ZN9__gnu_cxx13new_allocatorIhE8allocateEjPKv>:
100026d8:	b580      	push	{r7, lr}
100026da:	b084      	sub	sp, #16
100026dc:	af00      	add	r7, sp, #0
100026de:	60f8      	str	r0, [r7, #12]
100026e0:	60b9      	str	r1, [r7, #8]
100026e2:	607a      	str	r2, [r7, #4]
100026e4:	68fb      	ldr	r3, [r7, #12]
100026e6:	1c18      	adds	r0, r3, #0
100026e8:	f000 f84c 	bl	10002784 <_ZNK9__gnu_cxx13new_allocatorIhE8max_sizeEv>
100026ec:	1c02      	adds	r2, r0, #0
100026ee:	68bb      	ldr	r3, [r7, #8]
100026f0:	429a      	cmp	r2, r3
100026f2:	419b      	sbcs	r3, r3
100026f4:	425b      	negs	r3, r3
100026f6:	b2db      	uxtb	r3, r3
100026f8:	2b00      	cmp	r3, #0
100026fa:	d001      	beq.n	10002700 <_ZN9__gnu_cxx13new_allocatorIhE8allocateEjPKv+0x28>
100026fc:	f001 fd62 	bl	100041c4 <_ZSt17__throw_bad_allocv>
10002700:	68bb      	ldr	r3, [r7, #8]
10002702:	1c18      	adds	r0, r3, #0
10002704:	f001 fd42 	bl	1000418c <_Znwj>
10002708:	1c03      	adds	r3, r0, #0
1000270a:	1c18      	adds	r0, r3, #0
1000270c:	46bd      	mov	sp, r7
1000270e:	b004      	add	sp, #16
10002710:	bd80      	pop	{r7, pc}
10002712:	46c0      	nop			; (mov r8, r8)

10002714 <_ZSt18uninitialized_copyIPhS0_ET0_T_S2_S1_>:
10002714:	b580      	push	{r7, lr}
10002716:	b086      	sub	sp, #24
10002718:	af00      	add	r7, sp, #0
1000271a:	60f8      	str	r0, [r7, #12]
1000271c:	60b9      	str	r1, [r7, #8]
1000271e:	607a      	str	r2, [r7, #4]
10002720:	2317      	movs	r3, #23
10002722:	18fb      	adds	r3, r7, r3
10002724:	2201      	movs	r2, #1
10002726:	701a      	strb	r2, [r3, #0]
10002728:	68f9      	ldr	r1, [r7, #12]
1000272a:	68ba      	ldr	r2, [r7, #8]
1000272c:	687b      	ldr	r3, [r7, #4]
1000272e:	1c08      	adds	r0, r1, #0
10002730:	1c11      	adds	r1, r2, #0
10002732:	1c1a      	adds	r2, r3, #0
10002734:	f000 f830 	bl	10002798 <_ZNSt20__uninitialized_copyILb1EE13__uninit_copyIPhS2_EET0_T_S4_S3_>
10002738:	1c03      	adds	r3, r0, #0
1000273a:	1c18      	adds	r0, r3, #0
1000273c:	46bd      	mov	sp, r7
1000273e:	b006      	add	sp, #24
10002740:	bd80      	pop	{r7, pc}
10002742:	46c0      	nop			; (mov r8, r8)

10002744 <_ZNSt20__copy_move_backwardILb0ELb1ESt26random_access_iterator_tagE13__copy_move_bIhEEPT_PKS3_S6_S4_>:
10002744:	b580      	push	{r7, lr}
10002746:	b086      	sub	sp, #24
10002748:	af00      	add	r7, sp, #0
1000274a:	60f8      	str	r0, [r7, #12]
1000274c:	60b9      	str	r1, [r7, #8]
1000274e:	607a      	str	r2, [r7, #4]
10002750:	68ba      	ldr	r2, [r7, #8]
10002752:	68fb      	ldr	r3, [r7, #12]
10002754:	1ad3      	subs	r3, r2, r3
10002756:	617b      	str	r3, [r7, #20]
10002758:	697b      	ldr	r3, [r7, #20]
1000275a:	2b00      	cmp	r3, #0
1000275c:	d00a      	beq.n	10002774 <_ZNSt20__copy_move_backwardILb0ELb1ESt26random_access_iterator_tagE13__copy_move_bIhEEPT_PKS3_S6_S4_+0x30>
1000275e:	697b      	ldr	r3, [r7, #20]
10002760:	425b      	negs	r3, r3
10002762:	687a      	ldr	r2, [r7, #4]
10002764:	18d1      	adds	r1, r2, r3
10002766:	697b      	ldr	r3, [r7, #20]
10002768:	68fa      	ldr	r2, [r7, #12]
1000276a:	1c08      	adds	r0, r1, #0
1000276c:	1c11      	adds	r1, r2, #0
1000276e:	1c1a      	adds	r2, r3, #0
10002770:	f001 fecc 	bl	1000450c <memmove>
10002774:	697b      	ldr	r3, [r7, #20]
10002776:	425b      	negs	r3, r3
10002778:	687a      	ldr	r2, [r7, #4]
1000277a:	18d3      	adds	r3, r2, r3
1000277c:	1c18      	adds	r0, r3, #0
1000277e:	46bd      	mov	sp, r7
10002780:	b006      	add	sp, #24
10002782:	bd80      	pop	{r7, pc}

10002784 <_ZNK9__gnu_cxx13new_allocatorIhE8max_sizeEv>:
10002784:	b580      	push	{r7, lr}
10002786:	b082      	sub	sp, #8
10002788:	af00      	add	r7, sp, #0
1000278a:	6078      	str	r0, [r7, #4]
1000278c:	2301      	movs	r3, #1
1000278e:	425b      	negs	r3, r3
10002790:	1c18      	adds	r0, r3, #0
10002792:	46bd      	mov	sp, r7
10002794:	b002      	add	sp, #8
10002796:	bd80      	pop	{r7, pc}

10002798 <_ZNSt20__uninitialized_copyILb1EE13__uninit_copyIPhS2_EET0_T_S4_S3_>:
10002798:	b580      	push	{r7, lr}
1000279a:	b084      	sub	sp, #16
1000279c:	af00      	add	r7, sp, #0
1000279e:	60f8      	str	r0, [r7, #12]
100027a0:	60b9      	str	r1, [r7, #8]
100027a2:	607a      	str	r2, [r7, #4]
100027a4:	68f9      	ldr	r1, [r7, #12]
100027a6:	68ba      	ldr	r2, [r7, #8]
100027a8:	687b      	ldr	r3, [r7, #4]
100027aa:	1c08      	adds	r0, r1, #0
100027ac:	1c11      	adds	r1, r2, #0
100027ae:	1c1a      	adds	r2, r3, #0
100027b0:	f000 f806 	bl	100027c0 <_ZSt4copyIPhS0_ET0_T_S2_S1_>
100027b4:	1c03      	adds	r3, r0, #0
100027b6:	1c18      	adds	r0, r3, #0
100027b8:	46bd      	mov	sp, r7
100027ba:	b004      	add	sp, #16
100027bc:	bd80      	pop	{r7, pc}
100027be:	46c0      	nop			; (mov r8, r8)

100027c0 <_ZSt4copyIPhS0_ET0_T_S2_S1_>:
100027c0:	b590      	push	{r4, r7, lr}
100027c2:	b085      	sub	sp, #20
100027c4:	af00      	add	r7, sp, #0
100027c6:	60f8      	str	r0, [r7, #12]
100027c8:	60b9      	str	r1, [r7, #8]
100027ca:	607a      	str	r2, [r7, #4]
100027cc:	68fb      	ldr	r3, [r7, #12]
100027ce:	1c18      	adds	r0, r3, #0
100027d0:	f7ff febc 	bl	1000254c <_ZSt12__miter_baseIPhENSt11_Miter_baseIT_E13iterator_typeES2_>
100027d4:	1c04      	adds	r4, r0, #0
100027d6:	68bb      	ldr	r3, [r7, #8]
100027d8:	1c18      	adds	r0, r3, #0
100027da:	f7ff feb7 	bl	1000254c <_ZSt12__miter_baseIPhENSt11_Miter_baseIT_E13iterator_typeES2_>
100027de:	1c02      	adds	r2, r0, #0
100027e0:	687b      	ldr	r3, [r7, #4]
100027e2:	1c20      	adds	r0, r4, #0
100027e4:	1c11      	adds	r1, r2, #0
100027e6:	1c1a      	adds	r2, r3, #0
100027e8:	f000 f806 	bl	100027f8 <_ZSt14__copy_move_a2ILb0EPhS0_ET1_T0_S2_S1_>
100027ec:	1c03      	adds	r3, r0, #0
100027ee:	1c18      	adds	r0, r3, #0
100027f0:	46bd      	mov	sp, r7
100027f2:	b005      	add	sp, #20
100027f4:	bd90      	pop	{r4, r7, pc}
100027f6:	46c0      	nop			; (mov r8, r8)

100027f8 <_ZSt14__copy_move_a2ILb0EPhS0_ET1_T0_S2_S1_>:
100027f8:	b5b0      	push	{r4, r5, r7, lr}
100027fa:	b084      	sub	sp, #16
100027fc:	af00      	add	r7, sp, #0
100027fe:	60f8      	str	r0, [r7, #12]
10002800:	60b9      	str	r1, [r7, #8]
10002802:	607a      	str	r2, [r7, #4]
10002804:	68fb      	ldr	r3, [r7, #12]
10002806:	1c18      	adds	r0, r3, #0
10002808:	f7ff ff28 	bl	1000265c <_ZSt12__niter_baseIPhENSt11_Niter_baseIT_E13iterator_typeES2_>
1000280c:	1c05      	adds	r5, r0, #0
1000280e:	68bb      	ldr	r3, [r7, #8]
10002810:	1c18      	adds	r0, r3, #0
10002812:	f7ff ff23 	bl	1000265c <_ZSt12__niter_baseIPhENSt11_Niter_baseIT_E13iterator_typeES2_>
10002816:	1c04      	adds	r4, r0, #0
10002818:	687b      	ldr	r3, [r7, #4]
1000281a:	1c18      	adds	r0, r3, #0
1000281c:	f7ff ff1e 	bl	1000265c <_ZSt12__niter_baseIPhENSt11_Niter_baseIT_E13iterator_typeES2_>
10002820:	1c03      	adds	r3, r0, #0
10002822:	1c28      	adds	r0, r5, #0
10002824:	1c21      	adds	r1, r4, #0
10002826:	1c1a      	adds	r2, r3, #0
10002828:	f000 f806 	bl	10002838 <_ZSt13__copy_move_aILb0EPhS0_ET1_T0_S2_S1_>
1000282c:	1c03      	adds	r3, r0, #0
1000282e:	1c18      	adds	r0, r3, #0
10002830:	46bd      	mov	sp, r7
10002832:	b004      	add	sp, #16
10002834:	bdb0      	pop	{r4, r5, r7, pc}
10002836:	46c0      	nop			; (mov r8, r8)

10002838 <_ZSt13__copy_move_aILb0EPhS0_ET1_T0_S2_S1_>:
10002838:	b580      	push	{r7, lr}
1000283a:	b086      	sub	sp, #24
1000283c:	af00      	add	r7, sp, #0
1000283e:	60f8      	str	r0, [r7, #12]
10002840:	60b9      	str	r1, [r7, #8]
10002842:	607a      	str	r2, [r7, #4]
10002844:	2317      	movs	r3, #23
10002846:	18fb      	adds	r3, r7, r3
10002848:	2201      	movs	r2, #1
1000284a:	701a      	strb	r2, [r3, #0]
1000284c:	68f9      	ldr	r1, [r7, #12]
1000284e:	68ba      	ldr	r2, [r7, #8]
10002850:	687b      	ldr	r3, [r7, #4]
10002852:	1c08      	adds	r0, r1, #0
10002854:	1c11      	adds	r1, r2, #0
10002856:	1c1a      	adds	r2, r3, #0
10002858:	f000 f806 	bl	10002868 <_ZNSt11__copy_moveILb0ELb1ESt26random_access_iterator_tagE8__copy_mIhEEPT_PKS3_S6_S4_>
1000285c:	1c03      	adds	r3, r0, #0
1000285e:	1c18      	adds	r0, r3, #0
10002860:	46bd      	mov	sp, r7
10002862:	b006      	add	sp, #24
10002864:	bd80      	pop	{r7, pc}
10002866:	46c0      	nop			; (mov r8, r8)

10002868 <_ZNSt11__copy_moveILb0ELb1ESt26random_access_iterator_tagE8__copy_mIhEEPT_PKS3_S6_S4_>:
10002868:	b580      	push	{r7, lr}
1000286a:	b086      	sub	sp, #24
1000286c:	af00      	add	r7, sp, #0
1000286e:	60f8      	str	r0, [r7, #12]
10002870:	60b9      	str	r1, [r7, #8]
10002872:	607a      	str	r2, [r7, #4]
10002874:	68ba      	ldr	r2, [r7, #8]
10002876:	68fb      	ldr	r3, [r7, #12]
10002878:	1ad3      	subs	r3, r2, r3
1000287a:	617b      	str	r3, [r7, #20]
1000287c:	697b      	ldr	r3, [r7, #20]
1000287e:	2b00      	cmp	r3, #0
10002880:	d007      	beq.n	10002892 <_ZNSt11__copy_moveILb0ELb1ESt26random_access_iterator_tagE8__copy_mIhEEPT_PKS3_S6_S4_+0x2a>
10002882:	697b      	ldr	r3, [r7, #20]
10002884:	6879      	ldr	r1, [r7, #4]
10002886:	68fa      	ldr	r2, [r7, #12]
10002888:	1c08      	adds	r0, r1, #0
1000288a:	1c11      	adds	r1, r2, #0
1000288c:	1c1a      	adds	r2, r3, #0
1000288e:	f001 fe3d 	bl	1000450c <memmove>
10002892:	697b      	ldr	r3, [r7, #20]
10002894:	687a      	ldr	r2, [r7, #4]
10002896:	18d3      	adds	r3, r2, r3
10002898:	1c18      	adds	r0, r3, #0
1000289a:	46bd      	mov	sp, r7
1000289c:	b006      	add	sp, #24
1000289e:	bd80      	pop	{r7, pc}

100028a0 <_ZN5FrameC1Ev>:
100028a0:	b580      	push	{r7, lr}
100028a2:	b082      	sub	sp, #8
100028a4:	af00      	add	r7, sp, #0
100028a6:	6078      	str	r0, [r7, #4]
100028a8:	687b      	ldr	r3, [r7, #4]
100028aa:	4a08      	ldr	r2, [pc, #32]	; (100028cc <_ZN5FrameC1Ev+0x2c>)
100028ac:	601a      	str	r2, [r3, #0]
100028ae:	687b      	ldr	r3, [r7, #4]
100028b0:	3304      	adds	r3, #4
100028b2:	1c18      	adds	r0, r3, #0
100028b4:	f000 f88e 	bl	100029d4 <_ZNSt6vectorIP13FloorRegisterSaIS1_EEC1Ev>
100028b8:	687b      	ldr	r3, [r7, #4]
100028ba:	3314      	adds	r3, #20
100028bc:	1c18      	adds	r0, r3, #0
100028be:	f7ff fb2f 	bl	10001f20 <_ZNSt6vectorIhSaIhEEC1Ev>
100028c2:	687b      	ldr	r3, [r7, #4]
100028c4:	1c18      	adds	r0, r3, #0
100028c6:	46bd      	mov	sp, r7
100028c8:	b002      	add	sp, #8
100028ca:	bd80      	pop	{r7, pc}
100028cc:	100047e0 	.word	0x100047e0

100028d0 <_ZN5FrameD1Ev>:
100028d0:	b580      	push	{r7, lr}
100028d2:	b082      	sub	sp, #8
100028d4:	af00      	add	r7, sp, #0
100028d6:	6078      	str	r0, [r7, #4]
100028d8:	687b      	ldr	r3, [r7, #4]
100028da:	4a0c      	ldr	r2, [pc, #48]	; (1000290c <_ZN5FrameD1Ev+0x3c>)
100028dc:	601a      	str	r2, [r3, #0]
100028de:	687b      	ldr	r3, [r7, #4]
100028e0:	3314      	adds	r3, #20
100028e2:	1c18      	adds	r0, r3, #0
100028e4:	f7ff fb2a 	bl	10001f3c <_ZNSt6vectorIhSaIhEED1Ev>
100028e8:	687b      	ldr	r3, [r7, #4]
100028ea:	3304      	adds	r3, #4
100028ec:	1c18      	adds	r0, r3, #0
100028ee:	f000 f87f 	bl	100029f0 <_ZNSt6vectorIP13FloorRegisterSaIS1_EED1Ev>
100028f2:	2300      	movs	r3, #0
100028f4:	2b00      	cmp	r3, #0
100028f6:	d003      	beq.n	10002900 <_ZN5FrameD1Ev+0x30>
100028f8:	687b      	ldr	r3, [r7, #4]
100028fa:	1c18      	adds	r0, r3, #0
100028fc:	f001 fc58 	bl	100041b0 <_ZdlPv>
10002900:	687b      	ldr	r3, [r7, #4]
10002902:	1c18      	adds	r0, r3, #0
10002904:	46bd      	mov	sp, r7
10002906:	b002      	add	sp, #8
10002908:	bd80      	pop	{r7, pc}
1000290a:	46c0      	nop			; (mov r8, r8)
1000290c:	100047e0 	.word	0x100047e0

10002910 <_ZN5FrameD0Ev>:
10002910:	b580      	push	{r7, lr}
10002912:	b082      	sub	sp, #8
10002914:	af00      	add	r7, sp, #0
10002916:	6078      	str	r0, [r7, #4]
10002918:	687b      	ldr	r3, [r7, #4]
1000291a:	1c18      	adds	r0, r3, #0
1000291c:	f7ff ffd8 	bl	100028d0 <_ZN5FrameD1Ev>
10002920:	687b      	ldr	r3, [r7, #4]
10002922:	1c18      	adds	r0, r3, #0
10002924:	f001 fc44 	bl	100041b0 <_ZdlPv>
10002928:	687b      	ldr	r3, [r7, #4]
1000292a:	1c18      	adds	r0, r3, #0
1000292c:	46bd      	mov	sp, r7
1000292e:	b002      	add	sp, #8
10002930:	bd80      	pop	{r7, pc}
10002932:	46c0      	nop			; (mov r8, r8)

10002934 <_ZN5Frame14getFloorsCountEv>:
10002934:	b580      	push	{r7, lr}
10002936:	b082      	sub	sp, #8
10002938:	af00      	add	r7, sp, #0
1000293a:	6078      	str	r0, [r7, #4]
1000293c:	687b      	ldr	r3, [r7, #4]
1000293e:	3314      	adds	r3, #20
10002940:	1c18      	adds	r0, r3, #0
10002942:	f7ff fb4d 	bl	10001fe0 <_ZNKSt6vectorIhSaIhEE4sizeEv>
10002946:	1c03      	adds	r3, r0, #0
10002948:	1c18      	adds	r0, r3, #0
1000294a:	46bd      	mov	sp, r7
1000294c:	b002      	add	sp, #8
1000294e:	bd80      	pop	{r7, pc}

10002950 <_ZN5Frame4initEPhi>:
10002950:	b580      	push	{r7, lr}
10002952:	b086      	sub	sp, #24
10002954:	af00      	add	r7, sp, #0
10002956:	60f8      	str	r0, [r7, #12]
10002958:	60b9      	str	r1, [r7, #8]
1000295a:	607a      	str	r2, [r7, #4]
1000295c:	2300      	movs	r3, #0
1000295e:	617b      	str	r3, [r7, #20]
10002960:	e00b      	b.n	1000297a <_ZN5Frame4initEPhi+0x2a>
10002962:	697b      	ldr	r3, [r7, #20]
10002964:	68ba      	ldr	r2, [r7, #8]
10002966:	18d3      	adds	r3, r2, r3
10002968:	781b      	ldrb	r3, [r3, #0]
1000296a:	68fa      	ldr	r2, [r7, #12]
1000296c:	1c10      	adds	r0, r2, #0
1000296e:	1c19      	adds	r1, r3, #0
10002970:	f000 f80a 	bl	10002988 <_ZN5Frame8addValueEh>
10002974:	697b      	ldr	r3, [r7, #20]
10002976:	3301      	adds	r3, #1
10002978:	617b      	str	r3, [r7, #20]
1000297a:	697a      	ldr	r2, [r7, #20]
1000297c:	687b      	ldr	r3, [r7, #4]
1000297e:	429a      	cmp	r2, r3
10002980:	dbef      	blt.n	10002962 <_ZN5Frame4initEPhi+0x12>
10002982:	46bd      	mov	sp, r7
10002984:	b006      	add	sp, #24
10002986:	bd80      	pop	{r7, pc}

10002988 <_ZN5Frame8addValueEh>:
10002988:	b580      	push	{r7, lr}
1000298a:	b082      	sub	sp, #8
1000298c:	af00      	add	r7, sp, #0
1000298e:	6078      	str	r0, [r7, #4]
10002990:	1c0a      	adds	r2, r1, #0
10002992:	1cfb      	adds	r3, r7, #3
10002994:	701a      	strb	r2, [r3, #0]
10002996:	687b      	ldr	r3, [r7, #4]
10002998:	3314      	adds	r3, #20
1000299a:	1c1a      	adds	r2, r3, #0
1000299c:	1cfb      	adds	r3, r7, #3
1000299e:	1c10      	adds	r0, r2, #0
100029a0:	1c19      	adds	r1, r3, #0
100029a2:	f7ff fae7 	bl	10001f74 <_ZNSt6vectorIhSaIhEE9push_backERKh>
100029a6:	46bd      	mov	sp, r7
100029a8:	b002      	add	sp, #8
100029aa:	bd80      	pop	{r7, pc}

100029ac <_ZN5Frame8getValueEi>:
100029ac:	b580      	push	{r7, lr}
100029ae:	b082      	sub	sp, #8
100029b0:	af00      	add	r7, sp, #0
100029b2:	6078      	str	r0, [r7, #4]
100029b4:	6039      	str	r1, [r7, #0]
100029b6:	687b      	ldr	r3, [r7, #4]
100029b8:	3314      	adds	r3, #20
100029ba:	1c1a      	adds	r2, r3, #0
100029bc:	683b      	ldr	r3, [r7, #0]
100029be:	1c10      	adds	r0, r2, #0
100029c0:	1c19      	adds	r1, r3, #0
100029c2:	f7ff faff 	bl	10001fc4 <_ZNSt6vectorIhSaIhEEixEj>
100029c6:	1c03      	adds	r3, r0, #0
100029c8:	781b      	ldrb	r3, [r3, #0]
100029ca:	1c18      	adds	r0, r3, #0
100029cc:	46bd      	mov	sp, r7
100029ce:	b002      	add	sp, #8
100029d0:	bd80      	pop	{r7, pc}
100029d2:	46c0      	nop			; (mov r8, r8)

100029d4 <_ZNSt6vectorIP13FloorRegisterSaIS1_EEC1Ev>:
100029d4:	b580      	push	{r7, lr}
100029d6:	b082      	sub	sp, #8
100029d8:	af00      	add	r7, sp, #0
100029da:	6078      	str	r0, [r7, #4]
100029dc:	687b      	ldr	r3, [r7, #4]
100029de:	1c18      	adds	r0, r3, #0
100029e0:	f000 f830 	bl	10002a44 <_ZNSt12_Vector_baseIP13FloorRegisterSaIS1_EEC1Ev>
100029e4:	687b      	ldr	r3, [r7, #4]
100029e6:	1c18      	adds	r0, r3, #0
100029e8:	46bd      	mov	sp, r7
100029ea:	b002      	add	sp, #8
100029ec:	bd80      	pop	{r7, pc}
100029ee:	46c0      	nop			; (mov r8, r8)

100029f0 <_ZNSt6vectorIP13FloorRegisterSaIS1_EED1Ev>:
100029f0:	b5b0      	push	{r4, r5, r7, lr}
100029f2:	b082      	sub	sp, #8
100029f4:	af00      	add	r7, sp, #0
100029f6:	6078      	str	r0, [r7, #4]
100029f8:	687b      	ldr	r3, [r7, #4]
100029fa:	681d      	ldr	r5, [r3, #0]
100029fc:	687b      	ldr	r3, [r7, #4]
100029fe:	685c      	ldr	r4, [r3, #4]
10002a00:	687b      	ldr	r3, [r7, #4]
10002a02:	1c18      	adds	r0, r3, #0
10002a04:	f000 f84a 	bl	10002a9c <_ZNSt12_Vector_baseIP13FloorRegisterSaIS1_EE19_M_get_Tp_allocatorEv>
10002a08:	1c03      	adds	r3, r0, #0
10002a0a:	1c28      	adds	r0, r5, #0
10002a0c:	1c21      	adds	r1, r4, #0
10002a0e:	1c1a      	adds	r2, r3, #0
10002a10:	f000 f84e 	bl	10002ab0 <_ZSt8_DestroyIPP13FloorRegisterS1_EvT_S3_RSaIT0_E>
10002a14:	687b      	ldr	r3, [r7, #4]
10002a16:	1c18      	adds	r0, r3, #0
10002a18:	f000 f822 	bl	10002a60 <_ZNSt12_Vector_baseIP13FloorRegisterSaIS1_EED1Ev>
10002a1c:	687b      	ldr	r3, [r7, #4]
10002a1e:	1c18      	adds	r0, r3, #0
10002a20:	46bd      	mov	sp, r7
10002a22:	b002      	add	sp, #8
10002a24:	bdb0      	pop	{r4, r5, r7, pc}
10002a26:	46c0      	nop			; (mov r8, r8)

10002a28 <_ZNSt12_Vector_baseIP13FloorRegisterSaIS1_EE12_Vector_implD1Ev>:
10002a28:	b580      	push	{r7, lr}
10002a2a:	b082      	sub	sp, #8
10002a2c:	af00      	add	r7, sp, #0
10002a2e:	6078      	str	r0, [r7, #4]
10002a30:	687b      	ldr	r3, [r7, #4]
10002a32:	1c18      	adds	r0, r3, #0
10002a34:	f000 f862 	bl	10002afc <_ZNSaIP13FloorRegisterED1Ev>
10002a38:	687b      	ldr	r3, [r7, #4]
10002a3a:	1c18      	adds	r0, r3, #0
10002a3c:	46bd      	mov	sp, r7
10002a3e:	b002      	add	sp, #8
10002a40:	bd80      	pop	{r7, pc}
10002a42:	46c0      	nop			; (mov r8, r8)

10002a44 <_ZNSt12_Vector_baseIP13FloorRegisterSaIS1_EEC1Ev>:
10002a44:	b580      	push	{r7, lr}
10002a46:	b082      	sub	sp, #8
10002a48:	af00      	add	r7, sp, #0
10002a4a:	6078      	str	r0, [r7, #4]
10002a4c:	687b      	ldr	r3, [r7, #4]
10002a4e:	1c18      	adds	r0, r3, #0
10002a50:	f000 f83e 	bl	10002ad0 <_ZNSt12_Vector_baseIP13FloorRegisterSaIS1_EE12_Vector_implC1Ev>
10002a54:	687b      	ldr	r3, [r7, #4]
10002a56:	1c18      	adds	r0, r3, #0
10002a58:	46bd      	mov	sp, r7
10002a5a:	b002      	add	sp, #8
10002a5c:	bd80      	pop	{r7, pc}
10002a5e:	46c0      	nop			; (mov r8, r8)

10002a60 <_ZNSt12_Vector_baseIP13FloorRegisterSaIS1_EED1Ev>:
10002a60:	b590      	push	{r4, r7, lr}
10002a62:	b083      	sub	sp, #12
10002a64:	af00      	add	r7, sp, #0
10002a66:	6078      	str	r0, [r7, #4]
10002a68:	687b      	ldr	r3, [r7, #4]
10002a6a:	681a      	ldr	r2, [r3, #0]
10002a6c:	687b      	ldr	r3, [r7, #4]
10002a6e:	689b      	ldr	r3, [r3, #8]
10002a70:	1c19      	adds	r1, r3, #0
10002a72:	687b      	ldr	r3, [r7, #4]
10002a74:	681b      	ldr	r3, [r3, #0]
10002a76:	1acb      	subs	r3, r1, r3
10002a78:	109b      	asrs	r3, r3, #2
10002a7a:	1c1c      	adds	r4, r3, #0
10002a7c:	687b      	ldr	r3, [r7, #4]
10002a7e:	1c18      	adds	r0, r3, #0
10002a80:	1c11      	adds	r1, r2, #0
10002a82:	1c22      	adds	r2, r4, #0
10002a84:	f000 f848 	bl	10002b18 <_ZNSt12_Vector_baseIP13FloorRegisterSaIS1_EE13_M_deallocateEPS1_j>
10002a88:	687b      	ldr	r3, [r7, #4]
10002a8a:	1c18      	adds	r0, r3, #0
10002a8c:	f7ff ffcc 	bl	10002a28 <_ZNSt12_Vector_baseIP13FloorRegisterSaIS1_EE12_Vector_implD1Ev>
10002a90:	687b      	ldr	r3, [r7, #4]
10002a92:	1c18      	adds	r0, r3, #0
10002a94:	46bd      	mov	sp, r7
10002a96:	b003      	add	sp, #12
10002a98:	bd90      	pop	{r4, r7, pc}
10002a9a:	46c0      	nop			; (mov r8, r8)

10002a9c <_ZNSt12_Vector_baseIP13FloorRegisterSaIS1_EE19_M_get_Tp_allocatorEv>:
10002a9c:	b580      	push	{r7, lr}
10002a9e:	b082      	sub	sp, #8
10002aa0:	af00      	add	r7, sp, #0
10002aa2:	6078      	str	r0, [r7, #4]
10002aa4:	687b      	ldr	r3, [r7, #4]
10002aa6:	1c18      	adds	r0, r3, #0
10002aa8:	46bd      	mov	sp, r7
10002aaa:	b002      	add	sp, #8
10002aac:	bd80      	pop	{r7, pc}
10002aae:	46c0      	nop			; (mov r8, r8)

10002ab0 <_ZSt8_DestroyIPP13FloorRegisterS1_EvT_S3_RSaIT0_E>:
10002ab0:	b580      	push	{r7, lr}
10002ab2:	b084      	sub	sp, #16
10002ab4:	af00      	add	r7, sp, #0
10002ab6:	60f8      	str	r0, [r7, #12]
10002ab8:	60b9      	str	r1, [r7, #8]
10002aba:	607a      	str	r2, [r7, #4]
10002abc:	68fa      	ldr	r2, [r7, #12]
10002abe:	68bb      	ldr	r3, [r7, #8]
10002ac0:	1c10      	adds	r0, r2, #0
10002ac2:	1c19      	adds	r1, r3, #0
10002ac4:	f000 f83c 	bl	10002b40 <_ZSt8_DestroyIPP13FloorRegisterEvT_S3_>
10002ac8:	46bd      	mov	sp, r7
10002aca:	b004      	add	sp, #16
10002acc:	bd80      	pop	{r7, pc}
10002ace:	46c0      	nop			; (mov r8, r8)

10002ad0 <_ZNSt12_Vector_baseIP13FloorRegisterSaIS1_EE12_Vector_implC1Ev>:
10002ad0:	b580      	push	{r7, lr}
10002ad2:	b082      	sub	sp, #8
10002ad4:	af00      	add	r7, sp, #0
10002ad6:	6078      	str	r0, [r7, #4]
10002ad8:	687b      	ldr	r3, [r7, #4]
10002ada:	1c18      	adds	r0, r3, #0
10002adc:	f000 f83e 	bl	10002b5c <_ZNSaIP13FloorRegisterEC1Ev>
10002ae0:	687b      	ldr	r3, [r7, #4]
10002ae2:	2200      	movs	r2, #0
10002ae4:	601a      	str	r2, [r3, #0]
10002ae6:	687b      	ldr	r3, [r7, #4]
10002ae8:	2200      	movs	r2, #0
10002aea:	605a      	str	r2, [r3, #4]
10002aec:	687b      	ldr	r3, [r7, #4]
10002aee:	2200      	movs	r2, #0
10002af0:	609a      	str	r2, [r3, #8]
10002af2:	687b      	ldr	r3, [r7, #4]
10002af4:	1c18      	adds	r0, r3, #0
10002af6:	46bd      	mov	sp, r7
10002af8:	b002      	add	sp, #8
10002afa:	bd80      	pop	{r7, pc}

10002afc <_ZNSaIP13FloorRegisterED1Ev>:
10002afc:	b580      	push	{r7, lr}
10002afe:	b082      	sub	sp, #8
10002b00:	af00      	add	r7, sp, #0
10002b02:	6078      	str	r0, [r7, #4]
10002b04:	687b      	ldr	r3, [r7, #4]
10002b06:	1c18      	adds	r0, r3, #0
10002b08:	f000 f836 	bl	10002b78 <_ZN9__gnu_cxx13new_allocatorIP13FloorRegisterED1Ev>
10002b0c:	687b      	ldr	r3, [r7, #4]
10002b0e:	1c18      	adds	r0, r3, #0
10002b10:	46bd      	mov	sp, r7
10002b12:	b002      	add	sp, #8
10002b14:	bd80      	pop	{r7, pc}
10002b16:	46c0      	nop			; (mov r8, r8)

10002b18 <_ZNSt12_Vector_baseIP13FloorRegisterSaIS1_EE13_M_deallocateEPS1_j>:
10002b18:	b580      	push	{r7, lr}
10002b1a:	b084      	sub	sp, #16
10002b1c:	af00      	add	r7, sp, #0
10002b1e:	60f8      	str	r0, [r7, #12]
10002b20:	60b9      	str	r1, [r7, #8]
10002b22:	607a      	str	r2, [r7, #4]
10002b24:	68bb      	ldr	r3, [r7, #8]
10002b26:	2b00      	cmp	r3, #0
10002b28:	d007      	beq.n	10002b3a <_ZNSt12_Vector_baseIP13FloorRegisterSaIS1_EE13_M_deallocateEPS1_j+0x22>
10002b2a:	68f9      	ldr	r1, [r7, #12]
10002b2c:	68ba      	ldr	r2, [r7, #8]
10002b2e:	687b      	ldr	r3, [r7, #4]
10002b30:	1c08      	adds	r0, r1, #0
10002b32:	1c11      	adds	r1, r2, #0
10002b34:	1c1a      	adds	r2, r3, #0
10002b36:	f000 f829 	bl	10002b8c <_ZN9__gnu_cxx14__alloc_traitsISaIP13FloorRegisterEE10deallocateERS3_PS2_j>
10002b3a:	46bd      	mov	sp, r7
10002b3c:	b004      	add	sp, #16
10002b3e:	bd80      	pop	{r7, pc}

10002b40 <_ZSt8_DestroyIPP13FloorRegisterEvT_S3_>:
10002b40:	b580      	push	{r7, lr}
10002b42:	b082      	sub	sp, #8
10002b44:	af00      	add	r7, sp, #0
10002b46:	6078      	str	r0, [r7, #4]
10002b48:	6039      	str	r1, [r7, #0]
10002b4a:	687a      	ldr	r2, [r7, #4]
10002b4c:	683b      	ldr	r3, [r7, #0]
10002b4e:	1c10      	adds	r0, r2, #0
10002b50:	1c19      	adds	r1, r3, #0
10002b52:	f000 f82d 	bl	10002bb0 <_ZNSt12_Destroy_auxILb1EE9__destroyIPP13FloorRegisterEEvT_S5_>
10002b56:	46bd      	mov	sp, r7
10002b58:	b002      	add	sp, #8
10002b5a:	bd80      	pop	{r7, pc}

10002b5c <_ZNSaIP13FloorRegisterEC1Ev>:
10002b5c:	b580      	push	{r7, lr}
10002b5e:	b082      	sub	sp, #8
10002b60:	af00      	add	r7, sp, #0
10002b62:	6078      	str	r0, [r7, #4]
10002b64:	687b      	ldr	r3, [r7, #4]
10002b66:	1c18      	adds	r0, r3, #0
10002b68:	f000 f82a 	bl	10002bc0 <_ZN9__gnu_cxx13new_allocatorIP13FloorRegisterEC1Ev>
10002b6c:	687b      	ldr	r3, [r7, #4]
10002b6e:	1c18      	adds	r0, r3, #0
10002b70:	46bd      	mov	sp, r7
10002b72:	b002      	add	sp, #8
10002b74:	bd80      	pop	{r7, pc}
10002b76:	46c0      	nop			; (mov r8, r8)

10002b78 <_ZN9__gnu_cxx13new_allocatorIP13FloorRegisterED1Ev>:
10002b78:	b580      	push	{r7, lr}
10002b7a:	b082      	sub	sp, #8
10002b7c:	af00      	add	r7, sp, #0
10002b7e:	6078      	str	r0, [r7, #4]
10002b80:	687b      	ldr	r3, [r7, #4]
10002b82:	1c18      	adds	r0, r3, #0
10002b84:	46bd      	mov	sp, r7
10002b86:	b002      	add	sp, #8
10002b88:	bd80      	pop	{r7, pc}
10002b8a:	46c0      	nop			; (mov r8, r8)

10002b8c <_ZN9__gnu_cxx14__alloc_traitsISaIP13FloorRegisterEE10deallocateERS3_PS2_j>:
10002b8c:	b580      	push	{r7, lr}
10002b8e:	b084      	sub	sp, #16
10002b90:	af00      	add	r7, sp, #0
10002b92:	60f8      	str	r0, [r7, #12]
10002b94:	60b9      	str	r1, [r7, #8]
10002b96:	607a      	str	r2, [r7, #4]
10002b98:	68f9      	ldr	r1, [r7, #12]
10002b9a:	68ba      	ldr	r2, [r7, #8]
10002b9c:	687b      	ldr	r3, [r7, #4]
10002b9e:	1c08      	adds	r0, r1, #0
10002ba0:	1c11      	adds	r1, r2, #0
10002ba2:	1c1a      	adds	r2, r3, #0
10002ba4:	f000 f816 	bl	10002bd4 <_ZN9__gnu_cxx13new_allocatorIP13FloorRegisterE10deallocateEPS2_j>
10002ba8:	46bd      	mov	sp, r7
10002baa:	b004      	add	sp, #16
10002bac:	bd80      	pop	{r7, pc}
10002bae:	46c0      	nop			; (mov r8, r8)

10002bb0 <_ZNSt12_Destroy_auxILb1EE9__destroyIPP13FloorRegisterEEvT_S5_>:
10002bb0:	b580      	push	{r7, lr}
10002bb2:	b082      	sub	sp, #8
10002bb4:	af00      	add	r7, sp, #0
10002bb6:	6078      	str	r0, [r7, #4]
10002bb8:	6039      	str	r1, [r7, #0]
10002bba:	46bd      	mov	sp, r7
10002bbc:	b002      	add	sp, #8
10002bbe:	bd80      	pop	{r7, pc}

10002bc0 <_ZN9__gnu_cxx13new_allocatorIP13FloorRegisterEC1Ev>:
10002bc0:	b580      	push	{r7, lr}
10002bc2:	b082      	sub	sp, #8
10002bc4:	af00      	add	r7, sp, #0
10002bc6:	6078      	str	r0, [r7, #4]
10002bc8:	687b      	ldr	r3, [r7, #4]
10002bca:	1c18      	adds	r0, r3, #0
10002bcc:	46bd      	mov	sp, r7
10002bce:	b002      	add	sp, #8
10002bd0:	bd80      	pop	{r7, pc}
10002bd2:	46c0      	nop			; (mov r8, r8)

10002bd4 <_ZN9__gnu_cxx13new_allocatorIP13FloorRegisterE10deallocateEPS2_j>:
10002bd4:	b580      	push	{r7, lr}
10002bd6:	b084      	sub	sp, #16
10002bd8:	af00      	add	r7, sp, #0
10002bda:	60f8      	str	r0, [r7, #12]
10002bdc:	60b9      	str	r1, [r7, #8]
10002bde:	607a      	str	r2, [r7, #4]
10002be0:	68bb      	ldr	r3, [r7, #8]
10002be2:	1c18      	adds	r0, r3, #0
10002be4:	f001 fae4 	bl	100041b0 <_ZdlPv>
10002be8:	46bd      	mov	sp, r7
10002bea:	b004      	add	sp, #16
10002bec:	bd80      	pop	{r7, pc}
10002bee:	46c0      	nop			; (mov r8, r8)

10002bf0 <_ZN4CubeC1Ev>:
10002bf0:	b580      	push	{r7, lr}
10002bf2:	b082      	sub	sp, #8
10002bf4:	af00      	add	r7, sp, #0
10002bf6:	6078      	str	r0, [r7, #4]
10002bf8:	687b      	ldr	r3, [r7, #4]
10002bfa:	1c18      	adds	r0, r3, #0
10002bfc:	f000 ffb2 	bl	10003b64 <_ZN7XObjectC1Ev>
10002c00:	687b      	ldr	r3, [r7, #4]
10002c02:	4a06      	ldr	r2, [pc, #24]	; (10002c1c <_ZN4CubeC1Ev+0x2c>)
10002c04:	601a      	str	r2, [r3, #0]
10002c06:	687b      	ldr	r3, [r7, #4]
10002c08:	3304      	adds	r3, #4
10002c0a:	1c18      	adds	r0, r3, #0
10002c0c:	f000 f966 	bl	10002edc <_ZNSt6vectorIP5FloorSaIS1_EEC1Ev>
10002c10:	687b      	ldr	r3, [r7, #4]
10002c12:	1c18      	adds	r0, r3, #0
10002c14:	46bd      	mov	sp, r7
10002c16:	b002      	add	sp, #8
10002c18:	bd80      	pop	{r7, pc}
10002c1a:	46c0      	nop			; (mov r8, r8)
10002c1c:	10004808 	.word	0x10004808

10002c20 <_ZN4CubeD1Ev>:
10002c20:	b580      	push	{r7, lr}
10002c22:	b082      	sub	sp, #8
10002c24:	af00      	add	r7, sp, #0
10002c26:	6078      	str	r0, [r7, #4]
10002c28:	687b      	ldr	r3, [r7, #4]
10002c2a:	4a0b      	ldr	r2, [pc, #44]	; (10002c58 <_ZN4CubeD1Ev+0x38>)
10002c2c:	601a      	str	r2, [r3, #0]
10002c2e:	687b      	ldr	r3, [r7, #4]
10002c30:	3304      	adds	r3, #4
10002c32:	1c18      	adds	r0, r3, #0
10002c34:	f000 f960 	bl	10002ef8 <_ZNSt6vectorIP5FloorSaIS1_EED1Ev>
10002c38:	687b      	ldr	r3, [r7, #4]
10002c3a:	1c18      	adds	r0, r3, #0
10002c3c:	f000 ffa0 	bl	10003b80 <_ZN7XObjectD1Ev>
10002c40:	2300      	movs	r3, #0
10002c42:	2b00      	cmp	r3, #0
10002c44:	d003      	beq.n	10002c4e <_ZN4CubeD1Ev+0x2e>
10002c46:	687b      	ldr	r3, [r7, #4]
10002c48:	1c18      	adds	r0, r3, #0
10002c4a:	f001 fab1 	bl	100041b0 <_ZdlPv>
10002c4e:	687b      	ldr	r3, [r7, #4]
10002c50:	1c18      	adds	r0, r3, #0
10002c52:	46bd      	mov	sp, r7
10002c54:	b002      	add	sp, #8
10002c56:	bd80      	pop	{r7, pc}
10002c58:	10004808 	.word	0x10004808

10002c5c <_ZN4CubeD0Ev>:
10002c5c:	b580      	push	{r7, lr}
10002c5e:	b082      	sub	sp, #8
10002c60:	af00      	add	r7, sp, #0
10002c62:	6078      	str	r0, [r7, #4]
10002c64:	687b      	ldr	r3, [r7, #4]
10002c66:	1c18      	adds	r0, r3, #0
10002c68:	f7ff ffda 	bl	10002c20 <_ZN4CubeD1Ev>
10002c6c:	687b      	ldr	r3, [r7, #4]
10002c6e:	1c18      	adds	r0, r3, #0
10002c70:	f001 fa9e 	bl	100041b0 <_ZdlPv>
10002c74:	687b      	ldr	r3, [r7, #4]
10002c76:	1c18      	adds	r0, r3, #0
10002c78:	46bd      	mov	sp, r7
10002c7a:	b002      	add	sp, #8
10002c7c:	bd80      	pop	{r7, pc}
10002c7e:	46c0      	nop			; (mov r8, r8)

10002c80 <_ZN4Cube8addFloorEP5Floor>:
10002c80:	b580      	push	{r7, lr}
10002c82:	b082      	sub	sp, #8
10002c84:	af00      	add	r7, sp, #0
10002c86:	6078      	str	r0, [r7, #4]
10002c88:	6039      	str	r1, [r7, #0]
10002c8a:	687b      	ldr	r3, [r7, #4]
10002c8c:	1d1a      	adds	r2, r3, #4
10002c8e:	1c3b      	adds	r3, r7, #0
10002c90:	1c10      	adds	r0, r2, #0
10002c92:	1c19      	adds	r1, r3, #0
10002c94:	f000 f94c 	bl	10002f30 <_ZNSt6vectorIP5FloorSaIS1_EE9push_backERKS1_>
10002c98:	46bd      	mov	sp, r7
10002c9a:	b002      	add	sp, #8
10002c9c:	bd80      	pop	{r7, pc}
10002c9e:	46c0      	nop			; (mov r8, r8)

10002ca0 <_ZN4Cube3offEv>:
10002ca0:	b580      	push	{r7, lr}
10002ca2:	b084      	sub	sp, #16
10002ca4:	af00      	add	r7, sp, #0
10002ca6:	6078      	str	r0, [r7, #4]
10002ca8:	2300      	movs	r3, #0
10002caa:	60fb      	str	r3, [r7, #12]
10002cac:	e00e      	b.n	10002ccc <_ZN4Cube3offEv+0x2c>
10002cae:	687b      	ldr	r3, [r7, #4]
10002cb0:	1d1a      	adds	r2, r3, #4
10002cb2:	68fb      	ldr	r3, [r7, #12]
10002cb4:	1c10      	adds	r0, r2, #0
10002cb6:	1c19      	adds	r1, r3, #0
10002cb8:	f000 f962 	bl	10002f80 <_ZNSt6vectorIP5FloorSaIS1_EEixEj>
10002cbc:	1c03      	adds	r3, r0, #0
10002cbe:	681b      	ldr	r3, [r3, #0]
10002cc0:	1c18      	adds	r0, r3, #0
10002cc2:	f000 fe59 	bl	10003978 <_ZN5Floor3offEv>
10002cc6:	68fb      	ldr	r3, [r7, #12]
10002cc8:	3301      	adds	r3, #1
10002cca:	60fb      	str	r3, [r7, #12]
10002ccc:	687b      	ldr	r3, [r7, #4]
10002cce:	3304      	adds	r3, #4
10002cd0:	1c18      	adds	r0, r3, #0
10002cd2:	f000 f963 	bl	10002f9c <_ZNKSt6vectorIP5FloorSaIS1_EE4sizeEv>
10002cd6:	1c02      	adds	r2, r0, #0
10002cd8:	68fb      	ldr	r3, [r7, #12]
10002cda:	4293      	cmp	r3, r2
10002cdc:	419b      	sbcs	r3, r3
10002cde:	425b      	negs	r3, r3
10002ce0:	b2db      	uxtb	r3, r3
10002ce2:	2b00      	cmp	r3, #0
10002ce4:	d1e3      	bne.n	10002cae <_ZN4Cube3offEv+0xe>
10002ce6:	46bd      	mov	sp, r7
10002ce8:	b004      	add	sp, #16
10002cea:	bd80      	pop	{r7, pc}

10002cec <_ZN4Cube10playSymbolEP5Frameii>:
10002cec:	b580      	push	{r7, lr}
10002cee:	b088      	sub	sp, #32
10002cf0:	af00      	add	r7, sp, #0
10002cf2:	60f8      	str	r0, [r7, #12]
10002cf4:	60b9      	str	r1, [r7, #8]
10002cf6:	607a      	str	r2, [r7, #4]
10002cf8:	603b      	str	r3, [r7, #0]
10002cfa:	2300      	movs	r3, #0
10002cfc:	61fb      	str	r3, [r7, #28]
10002cfe:	e06d      	b.n	10002ddc <_ZN4Cube10playSymbolEP5Frameii+0xf0>
10002d00:	68fb      	ldr	r3, [r7, #12]
10002d02:	1d1a      	adds	r2, r3, #4
10002d04:	69fb      	ldr	r3, [r7, #28]
10002d06:	1c10      	adds	r0, r2, #0
10002d08:	1c19      	adds	r1, r3, #0
10002d0a:	f000 f939 	bl	10002f80 <_ZNSt6vectorIP5FloorSaIS1_EEixEj>
10002d0e:	1c03      	adds	r3, r0, #0
10002d10:	681b      	ldr	r3, [r3, #0]
10002d12:	61bb      	str	r3, [r7, #24]
10002d14:	69bb      	ldr	r3, [r7, #24]
10002d16:	1c18      	adds	r0, r3, #0
10002d18:	f000 fe2e 	bl	10003978 <_ZN5Floor3offEv>
10002d1c:	69bb      	ldr	r3, [r7, #24]
10002d1e:	1c18      	adds	r0, r3, #0
10002d20:	f000 fe4a 	bl	100039b8 <_ZN5Floor5beginEv>
10002d24:	2314      	movs	r3, #20
10002d26:	18fb      	adds	r3, r7, r3
10002d28:	2200      	movs	r2, #0
10002d2a:	701a      	strb	r2, [r3, #0]
10002d2c:	2314      	movs	r3, #20
10002d2e:	18fb      	adds	r3, r7, r3
10002d30:	2200      	movs	r2, #0
10002d32:	705a      	strb	r2, [r3, #1]
10002d34:	687b      	ldr	r3, [r7, #4]
10002d36:	2b02      	cmp	r3, #2
10002d38:	d122      	bne.n	10002d80 <_ZN4Cube10playSymbolEP5Frameii+0x94>
10002d3a:	68ba      	ldr	r2, [r7, #8]
10002d3c:	69fb      	ldr	r3, [r7, #28]
10002d3e:	1c10      	adds	r0, r2, #0
10002d40:	1c19      	adds	r1, r3, #0
10002d42:	f7ff fe33 	bl	100029ac <_ZN5Frame8getValueEi>
10002d46:	1c03      	adds	r3, r0, #0
10002d48:	1c1a      	adds	r2, r3, #0
10002d4a:	230f      	movs	r3, #15
10002d4c:	401a      	ands	r2, r3
10002d4e:	683b      	ldr	r3, [r7, #0]
10002d50:	411a      	asrs	r2, r3
10002d52:	1c13      	adds	r3, r2, #0
10002d54:	b2da      	uxtb	r2, r3
10002d56:	2314      	movs	r3, #20
10002d58:	18fb      	adds	r3, r7, r3
10002d5a:	701a      	strb	r2, [r3, #0]
10002d5c:	68ba      	ldr	r2, [r7, #8]
10002d5e:	69fb      	ldr	r3, [r7, #28]
10002d60:	1c10      	adds	r0, r2, #0
10002d62:	1c19      	adds	r1, r3, #0
10002d64:	f7ff fe22 	bl	100029ac <_ZN5Frame8getValueEi>
10002d68:	1c03      	adds	r3, r0, #0
10002d6a:	1c1a      	adds	r2, r3, #0
10002d6c:	23f0      	movs	r3, #240	; 0xf0
10002d6e:	401a      	ands	r2, r3
10002d70:	683b      	ldr	r3, [r7, #0]
10002d72:	411a      	asrs	r2, r3
10002d74:	1c13      	adds	r3, r2, #0
10002d76:	b2da      	uxtb	r2, r3
10002d78:	2314      	movs	r3, #20
10002d7a:	18fb      	adds	r3, r7, r3
10002d7c:	705a      	strb	r2, [r3, #1]
10002d7e:	e011      	b.n	10002da4 <_ZN4Cube10playSymbolEP5Frameii+0xb8>
10002d80:	68ba      	ldr	r2, [r7, #8]
10002d82:	69fb      	ldr	r3, [r7, #28]
10002d84:	1c10      	adds	r0, r2, #0
10002d86:	1c19      	adds	r1, r3, #0
10002d88:	f7ff fe10 	bl	100029ac <_ZN5Frame8getValueEi>
10002d8c:	1c03      	adds	r3, r0, #0
10002d8e:	1c1a      	adds	r2, r3, #0
10002d90:	683b      	ldr	r3, [r7, #0]
10002d92:	411a      	asrs	r2, r3
10002d94:	1c13      	adds	r3, r2, #0
10002d96:	b2d9      	uxtb	r1, r3
10002d98:	2314      	movs	r3, #20
10002d9a:	18fa      	adds	r2, r7, r3
10002d9c:	687b      	ldr	r3, [r7, #4]
10002d9e:	18d3      	adds	r3, r2, r3
10002da0:	1c0a      	adds	r2, r1, #0
10002da2:	701a      	strb	r2, [r3, #0]
10002da4:	69ba      	ldr	r2, [r7, #24]
10002da6:	2314      	movs	r3, #20
10002da8:	18fb      	adds	r3, r7, r3
10002daa:	1c10      	adds	r0, r2, #0
10002dac:	1c19      	adds	r1, r3, #0
10002dae:	f000 fdef 	bl	10003990 <_ZN5Floor4pushEPh>
10002db2:	69bb      	ldr	r3, [r7, #24]
10002db4:	1c18      	adds	r0, r3, #0
10002db6:	f000 fe0f 	bl	100039d8 <_ZN5Floor3endEv>
10002dba:	69bb      	ldr	r3, [r7, #24]
10002dbc:	1c18      	adds	r0, r3, #0
10002dbe:	f000 fdcf 	bl	10003960 <_ZN5Floor2onEv>
10002dc2:	68fb      	ldr	r3, [r7, #12]
10002dc4:	4a0e      	ldr	r2, [pc, #56]	; (10002e00 <_ZN4Cube10playSymbolEP5Frameii+0x114>)
10002dc6:	1c18      	adds	r0, r3, #0
10002dc8:	1c11      	adds	r1, r2, #0
10002dca:	f000 ff01 	bl	10003bd0 <_ZN7XObject5delayEj>
10002dce:	69bb      	ldr	r3, [r7, #24]
10002dd0:	1c18      	adds	r0, r3, #0
10002dd2:	f000 fdd1 	bl	10003978 <_ZN5Floor3offEv>
10002dd6:	69fb      	ldr	r3, [r7, #28]
10002dd8:	3301      	adds	r3, #1
10002dda:	61fb      	str	r3, [r7, #28]
10002ddc:	68bb      	ldr	r3, [r7, #8]
10002dde:	1c18      	adds	r0, r3, #0
10002de0:	f7ff fda8 	bl	10002934 <_ZN5Frame14getFloorsCountEv>
10002de4:	1c03      	adds	r3, r0, #0
10002de6:	1e5a      	subs	r2, r3, #1
10002de8:	69fb      	ldr	r3, [r7, #28]
10002dea:	17d0      	asrs	r0, r2, #31
10002dec:	0fd9      	lsrs	r1, r3, #31
10002dee:	429a      	cmp	r2, r3
10002df0:	4148      	adcs	r0, r1
10002df2:	1c03      	adds	r3, r0, #0
10002df4:	b2db      	uxtb	r3, r3
10002df6:	2b00      	cmp	r3, #0
10002df8:	d182      	bne.n	10002d00 <_ZN4Cube10playSymbolEP5Frameii+0x14>
10002dfa:	46bd      	mov	sp, r7
10002dfc:	b008      	add	sp, #32
10002dfe:	bd80      	pop	{r7, pc}
10002e00:	00000903 	.word	0x00000903

10002e04 <_ZN4Cube4playEP5Frame>:
10002e04:	b580      	push	{r7, lr}
10002e06:	b086      	sub	sp, #24
10002e08:	af00      	add	r7, sp, #0
10002e0a:	6078      	str	r0, [r7, #4]
10002e0c:	6039      	str	r1, [r7, #0]
10002e0e:	2300      	movs	r3, #0
10002e10:	617b      	str	r3, [r7, #20]
10002e12:	e00a      	b.n	10002e2a <_ZN4Cube4playEP5Frame+0x26>
10002e14:	687a      	ldr	r2, [r7, #4]
10002e16:	683b      	ldr	r3, [r7, #0]
10002e18:	1c10      	adds	r0, r2, #0
10002e1a:	1c19      	adds	r1, r3, #0
10002e1c:	2200      	movs	r2, #0
10002e1e:	2300      	movs	r3, #0
10002e20:	f7ff ff64 	bl	10002cec <_ZN4Cube10playSymbolEP5Frameii>
10002e24:	697b      	ldr	r3, [r7, #20]
10002e26:	3301      	adds	r3, #1
10002e28:	617b      	str	r3, [r7, #20]
10002e2a:	697b      	ldr	r3, [r7, #20]
10002e2c:	2b09      	cmp	r3, #9
10002e2e:	ddf1      	ble.n	10002e14 <_ZN4Cube4playEP5Frame+0x10>
10002e30:	687b      	ldr	r3, [r7, #4]
10002e32:	1c18      	adds	r0, r3, #0
10002e34:	f7ff ff34 	bl	10002ca0 <_ZN4Cube3offEv>
10002e38:	687a      	ldr	r2, [r7, #4]
10002e3a:	23fa      	movs	r3, #250	; 0xfa
10002e3c:	009b      	lsls	r3, r3, #2
10002e3e:	1c10      	adds	r0, r2, #0
10002e40:	1c19      	adds	r1, r3, #0
10002e42:	f000 fec5 	bl	10003bd0 <_ZN7XObject5delayEj>
10002e46:	2300      	movs	r3, #0
10002e48:	613b      	str	r3, [r7, #16]
10002e4a:	e00a      	b.n	10002e62 <_ZN4Cube4playEP5Frame+0x5e>
10002e4c:	687a      	ldr	r2, [r7, #4]
10002e4e:	683b      	ldr	r3, [r7, #0]
10002e50:	1c10      	adds	r0, r2, #0
10002e52:	1c19      	adds	r1, r3, #0
10002e54:	2202      	movs	r2, #2
10002e56:	2300      	movs	r3, #0
10002e58:	f7ff ff48 	bl	10002cec <_ZN4Cube10playSymbolEP5Frameii>
10002e5c:	693b      	ldr	r3, [r7, #16]
10002e5e:	3301      	adds	r3, #1
10002e60:	613b      	str	r3, [r7, #16]
10002e62:	693b      	ldr	r3, [r7, #16]
10002e64:	2b09      	cmp	r3, #9
10002e66:	ddf1      	ble.n	10002e4c <_ZN4Cube4playEP5Frame+0x48>
10002e68:	687b      	ldr	r3, [r7, #4]
10002e6a:	1c18      	adds	r0, r3, #0
10002e6c:	f7ff ff18 	bl	10002ca0 <_ZN4Cube3offEv>
10002e70:	687a      	ldr	r2, [r7, #4]
10002e72:	23fa      	movs	r3, #250	; 0xfa
10002e74:	009b      	lsls	r3, r3, #2
10002e76:	1c10      	adds	r0, r2, #0
10002e78:	1c19      	adds	r1, r3, #0
10002e7a:	f000 fea9 	bl	10003bd0 <_ZN7XObject5delayEj>
10002e7e:	2300      	movs	r3, #0
10002e80:	60fb      	str	r3, [r7, #12]
10002e82:	e00a      	b.n	10002e9a <_ZN4Cube4playEP5Frame+0x96>
10002e84:	687a      	ldr	r2, [r7, #4]
10002e86:	683b      	ldr	r3, [r7, #0]
10002e88:	1c10      	adds	r0, r2, #0
10002e8a:	1c19      	adds	r1, r3, #0
10002e8c:	2201      	movs	r2, #1
10002e8e:	2300      	movs	r3, #0
10002e90:	f7ff ff2c 	bl	10002cec <_ZN4Cube10playSymbolEP5Frameii>
10002e94:	68fb      	ldr	r3, [r7, #12]
10002e96:	3301      	adds	r3, #1
10002e98:	60fb      	str	r3, [r7, #12]
10002e9a:	68fb      	ldr	r3, [r7, #12]
10002e9c:	2b09      	cmp	r3, #9
10002e9e:	ddf1      	ble.n	10002e84 <_ZN4Cube4playEP5Frame+0x80>
10002ea0:	687b      	ldr	r3, [r7, #4]
10002ea2:	1c18      	adds	r0, r3, #0
10002ea4:	f7ff fefc 	bl	10002ca0 <_ZN4Cube3offEv>
10002ea8:	687a      	ldr	r2, [r7, #4]
10002eaa:	23fa      	movs	r3, #250	; 0xfa
10002eac:	009b      	lsls	r3, r3, #2
10002eae:	1c10      	adds	r0, r2, #0
10002eb0:	1c19      	adds	r1, r3, #0
10002eb2:	f000 fe8d 	bl	10003bd0 <_ZN7XObject5delayEj>
10002eb6:	2300      	movs	r3, #0
10002eb8:	60bb      	str	r3, [r7, #8]
10002eba:	e00a      	b.n	10002ed2 <_ZN4Cube4playEP5Frame+0xce>
10002ebc:	687a      	ldr	r2, [r7, #4]
10002ebe:	683b      	ldr	r3, [r7, #0]
10002ec0:	1c10      	adds	r0, r2, #0
10002ec2:	1c19      	adds	r1, r3, #0
10002ec4:	2202      	movs	r2, #2
10002ec6:	2300      	movs	r3, #0
10002ec8:	f7ff ff10 	bl	10002cec <_ZN4Cube10playSymbolEP5Frameii>
10002ecc:	68bb      	ldr	r3, [r7, #8]
10002ece:	3301      	adds	r3, #1
10002ed0:	60bb      	str	r3, [r7, #8]
10002ed2:	68bb      	ldr	r3, [r7, #8]
10002ed4:	2b09      	cmp	r3, #9
10002ed6:	ddf1      	ble.n	10002ebc <_ZN4Cube4playEP5Frame+0xb8>
10002ed8:	e799      	b.n	10002e0e <_ZN4Cube4playEP5Frame+0xa>
10002eda:	46c0      	nop			; (mov r8, r8)

10002edc <_ZNSt6vectorIP5FloorSaIS1_EEC1Ev>:
10002edc:	b580      	push	{r7, lr}
10002ede:	b082      	sub	sp, #8
10002ee0:	af00      	add	r7, sp, #0
10002ee2:	6078      	str	r0, [r7, #4]
10002ee4:	687b      	ldr	r3, [r7, #4]
10002ee6:	1c18      	adds	r0, r3, #0
10002ee8:	f000 f876 	bl	10002fd8 <_ZNSt12_Vector_baseIP5FloorSaIS1_EEC1Ev>
10002eec:	687b      	ldr	r3, [r7, #4]
10002eee:	1c18      	adds	r0, r3, #0
10002ef0:	46bd      	mov	sp, r7
10002ef2:	b002      	add	sp, #8
10002ef4:	bd80      	pop	{r7, pc}
10002ef6:	46c0      	nop			; (mov r8, r8)

10002ef8 <_ZNSt6vectorIP5FloorSaIS1_EED1Ev>:
10002ef8:	b5b0      	push	{r4, r5, r7, lr}
10002efa:	b082      	sub	sp, #8
10002efc:	af00      	add	r7, sp, #0
10002efe:	6078      	str	r0, [r7, #4]
10002f00:	687b      	ldr	r3, [r7, #4]
10002f02:	681d      	ldr	r5, [r3, #0]
10002f04:	687b      	ldr	r3, [r7, #4]
10002f06:	685c      	ldr	r4, [r3, #4]
10002f08:	687b      	ldr	r3, [r7, #4]
10002f0a:	1c18      	adds	r0, r3, #0
10002f0c:	f000 f890 	bl	10003030 <_ZNSt12_Vector_baseIP5FloorSaIS1_EE19_M_get_Tp_allocatorEv>
10002f10:	1c03      	adds	r3, r0, #0
10002f12:	1c28      	adds	r0, r5, #0
10002f14:	1c21      	adds	r1, r4, #0
10002f16:	1c1a      	adds	r2, r3, #0
10002f18:	f000 f894 	bl	10003044 <_ZSt8_DestroyIPP5FloorS1_EvT_S3_RSaIT0_E>
10002f1c:	687b      	ldr	r3, [r7, #4]
10002f1e:	1c18      	adds	r0, r3, #0
10002f20:	f000 f868 	bl	10002ff4 <_ZNSt12_Vector_baseIP5FloorSaIS1_EED1Ev>
10002f24:	687b      	ldr	r3, [r7, #4]
10002f26:	1c18      	adds	r0, r3, #0
10002f28:	46bd      	mov	sp, r7
10002f2a:	b002      	add	sp, #8
10002f2c:	bdb0      	pop	{r4, r5, r7, pc}
10002f2e:	46c0      	nop			; (mov r8, r8)

10002f30 <_ZNSt6vectorIP5FloorSaIS1_EE9push_backERKS1_>:
10002f30:	b580      	push	{r7, lr}
10002f32:	b082      	sub	sp, #8
10002f34:	af00      	add	r7, sp, #0
10002f36:	6078      	str	r0, [r7, #4]
10002f38:	6039      	str	r1, [r7, #0]
10002f3a:	687b      	ldr	r3, [r7, #4]
10002f3c:	685a      	ldr	r2, [r3, #4]
10002f3e:	687b      	ldr	r3, [r7, #4]
10002f40:	689b      	ldr	r3, [r3, #8]
10002f42:	429a      	cmp	r2, r3
10002f44:	d00e      	beq.n	10002f64 <_ZNSt6vectorIP5FloorSaIS1_EE9push_backERKS1_+0x34>
10002f46:	6879      	ldr	r1, [r7, #4]
10002f48:	687b      	ldr	r3, [r7, #4]
10002f4a:	685a      	ldr	r2, [r3, #4]
10002f4c:	683b      	ldr	r3, [r7, #0]
10002f4e:	1c08      	adds	r0, r1, #0
10002f50:	1c11      	adds	r1, r2, #0
10002f52:	1c1a      	adds	r2, r3, #0
10002f54:	f000 f886 	bl	10003064 <_ZN9__gnu_cxx14__alloc_traitsISaIP5FloorEE9constructIS2_EEvRS3_PS2_RKT_>
10002f58:	687b      	ldr	r3, [r7, #4]
10002f5a:	685b      	ldr	r3, [r3, #4]
10002f5c:	1d1a      	adds	r2, r3, #4
10002f5e:	687b      	ldr	r3, [r7, #4]
10002f60:	605a      	str	r2, [r3, #4]
10002f62:	e00a      	b.n	10002f7a <_ZNSt6vectorIP5FloorSaIS1_EE9push_backERKS1_+0x4a>
10002f64:	687b      	ldr	r3, [r7, #4]
10002f66:	1c18      	adds	r0, r3, #0
10002f68:	f000 f958 	bl	1000321c <_ZNSt6vectorIP5FloorSaIS1_EE3endEv>
10002f6c:	1c01      	adds	r1, r0, #0
10002f6e:	687a      	ldr	r2, [r7, #4]
10002f70:	683b      	ldr	r3, [r7, #0]
10002f72:	1c10      	adds	r0, r2, #0
10002f74:	1c1a      	adds	r2, r3, #0
10002f76:	f000 f887 	bl	10003088 <_ZNSt6vectorIP5FloorSaIS1_EE13_M_insert_auxEN9__gnu_cxx17__normal_iteratorIPS1_S3_EERKS1_>
10002f7a:	46bd      	mov	sp, r7
10002f7c:	b002      	add	sp, #8
10002f7e:	bd80      	pop	{r7, pc}

10002f80 <_ZNSt6vectorIP5FloorSaIS1_EEixEj>:
10002f80:	b580      	push	{r7, lr}
10002f82:	b082      	sub	sp, #8
10002f84:	af00      	add	r7, sp, #0
10002f86:	6078      	str	r0, [r7, #4]
10002f88:	6039      	str	r1, [r7, #0]
10002f8a:	687b      	ldr	r3, [r7, #4]
10002f8c:	681a      	ldr	r2, [r3, #0]
10002f8e:	683b      	ldr	r3, [r7, #0]
10002f90:	009b      	lsls	r3, r3, #2
10002f92:	18d3      	adds	r3, r2, r3
10002f94:	1c18      	adds	r0, r3, #0
10002f96:	46bd      	mov	sp, r7
10002f98:	b002      	add	sp, #8
10002f9a:	bd80      	pop	{r7, pc}

10002f9c <_ZNKSt6vectorIP5FloorSaIS1_EE4sizeEv>:
10002f9c:	b580      	push	{r7, lr}
10002f9e:	b082      	sub	sp, #8
10002fa0:	af00      	add	r7, sp, #0
10002fa2:	6078      	str	r0, [r7, #4]
10002fa4:	687b      	ldr	r3, [r7, #4]
10002fa6:	685b      	ldr	r3, [r3, #4]
10002fa8:	1c1a      	adds	r2, r3, #0
10002faa:	687b      	ldr	r3, [r7, #4]
10002fac:	681b      	ldr	r3, [r3, #0]
10002fae:	1ad3      	subs	r3, r2, r3
10002fb0:	109b      	asrs	r3, r3, #2
10002fb2:	1c18      	adds	r0, r3, #0
10002fb4:	46bd      	mov	sp, r7
10002fb6:	b002      	add	sp, #8
10002fb8:	bd80      	pop	{r7, pc}
10002fba:	46c0      	nop			; (mov r8, r8)

10002fbc <_ZNSt12_Vector_baseIP5FloorSaIS1_EE12_Vector_implD1Ev>:
10002fbc:	b580      	push	{r7, lr}
10002fbe:	b082      	sub	sp, #8
10002fc0:	af00      	add	r7, sp, #0
10002fc2:	6078      	str	r0, [r7, #4]
10002fc4:	687b      	ldr	r3, [r7, #4]
10002fc6:	1c18      	adds	r0, r3, #0
10002fc8:	f000 f950 	bl	1000326c <_ZNSaIP5FloorED1Ev>
10002fcc:	687b      	ldr	r3, [r7, #4]
10002fce:	1c18      	adds	r0, r3, #0
10002fd0:	46bd      	mov	sp, r7
10002fd2:	b002      	add	sp, #8
10002fd4:	bd80      	pop	{r7, pc}
10002fd6:	46c0      	nop			; (mov r8, r8)

10002fd8 <_ZNSt12_Vector_baseIP5FloorSaIS1_EEC1Ev>:
10002fd8:	b580      	push	{r7, lr}
10002fda:	b082      	sub	sp, #8
10002fdc:	af00      	add	r7, sp, #0
10002fde:	6078      	str	r0, [r7, #4]
10002fe0:	687b      	ldr	r3, [r7, #4]
10002fe2:	1c18      	adds	r0, r3, #0
10002fe4:	f000 f92c 	bl	10003240 <_ZNSt12_Vector_baseIP5FloorSaIS1_EE12_Vector_implC1Ev>
10002fe8:	687b      	ldr	r3, [r7, #4]
10002fea:	1c18      	adds	r0, r3, #0
10002fec:	46bd      	mov	sp, r7
10002fee:	b002      	add	sp, #8
10002ff0:	bd80      	pop	{r7, pc}
10002ff2:	46c0      	nop			; (mov r8, r8)

10002ff4 <_ZNSt12_Vector_baseIP5FloorSaIS1_EED1Ev>:
10002ff4:	b590      	push	{r4, r7, lr}
10002ff6:	b083      	sub	sp, #12
10002ff8:	af00      	add	r7, sp, #0
10002ffa:	6078      	str	r0, [r7, #4]
10002ffc:	687b      	ldr	r3, [r7, #4]
10002ffe:	681a      	ldr	r2, [r3, #0]
10003000:	687b      	ldr	r3, [r7, #4]
10003002:	689b      	ldr	r3, [r3, #8]
10003004:	1c19      	adds	r1, r3, #0
10003006:	687b      	ldr	r3, [r7, #4]
10003008:	681b      	ldr	r3, [r3, #0]
1000300a:	1acb      	subs	r3, r1, r3
1000300c:	109b      	asrs	r3, r3, #2
1000300e:	1c1c      	adds	r4, r3, #0
10003010:	687b      	ldr	r3, [r7, #4]
10003012:	1c18      	adds	r0, r3, #0
10003014:	1c11      	adds	r1, r2, #0
10003016:	1c22      	adds	r2, r4, #0
10003018:	f000 f936 	bl	10003288 <_ZNSt12_Vector_baseIP5FloorSaIS1_EE13_M_deallocateEPS1_j>
1000301c:	687b      	ldr	r3, [r7, #4]
1000301e:	1c18      	adds	r0, r3, #0
10003020:	f7ff ffcc 	bl	10002fbc <_ZNSt12_Vector_baseIP5FloorSaIS1_EE12_Vector_implD1Ev>
10003024:	687b      	ldr	r3, [r7, #4]
10003026:	1c18      	adds	r0, r3, #0
10003028:	46bd      	mov	sp, r7
1000302a:	b003      	add	sp, #12
1000302c:	bd90      	pop	{r4, r7, pc}
1000302e:	46c0      	nop			; (mov r8, r8)

10003030 <_ZNSt12_Vector_baseIP5FloorSaIS1_EE19_M_get_Tp_allocatorEv>:
10003030:	b580      	push	{r7, lr}
10003032:	b082      	sub	sp, #8
10003034:	af00      	add	r7, sp, #0
10003036:	6078      	str	r0, [r7, #4]
10003038:	687b      	ldr	r3, [r7, #4]
1000303a:	1c18      	adds	r0, r3, #0
1000303c:	46bd      	mov	sp, r7
1000303e:	b002      	add	sp, #8
10003040:	bd80      	pop	{r7, pc}
10003042:	46c0      	nop			; (mov r8, r8)

10003044 <_ZSt8_DestroyIPP5FloorS1_EvT_S3_RSaIT0_E>:
10003044:	b580      	push	{r7, lr}
10003046:	b084      	sub	sp, #16
10003048:	af00      	add	r7, sp, #0
1000304a:	60f8      	str	r0, [r7, #12]
1000304c:	60b9      	str	r1, [r7, #8]
1000304e:	607a      	str	r2, [r7, #4]
10003050:	68fa      	ldr	r2, [r7, #12]
10003052:	68bb      	ldr	r3, [r7, #8]
10003054:	1c10      	adds	r0, r2, #0
10003056:	1c19      	adds	r1, r3, #0
10003058:	f000 f92a 	bl	100032b0 <_ZSt8_DestroyIPP5FloorEvT_S3_>
1000305c:	46bd      	mov	sp, r7
1000305e:	b004      	add	sp, #16
10003060:	bd80      	pop	{r7, pc}
10003062:	46c0      	nop			; (mov r8, r8)

10003064 <_ZN9__gnu_cxx14__alloc_traitsISaIP5FloorEE9constructIS2_EEvRS3_PS2_RKT_>:
10003064:	b580      	push	{r7, lr}
10003066:	b084      	sub	sp, #16
10003068:	af00      	add	r7, sp, #0
1000306a:	60f8      	str	r0, [r7, #12]
1000306c:	60b9      	str	r1, [r7, #8]
1000306e:	607a      	str	r2, [r7, #4]
10003070:	68f9      	ldr	r1, [r7, #12]
10003072:	68ba      	ldr	r2, [r7, #8]
10003074:	687b      	ldr	r3, [r7, #4]
10003076:	1c08      	adds	r0, r1, #0
10003078:	1c11      	adds	r1, r2, #0
1000307a:	1c1a      	adds	r2, r3, #0
1000307c:	f000 f926 	bl	100032cc <_ZN9__gnu_cxx13new_allocatorIP5FloorE9constructEPS2_RKS2_>
10003080:	46bd      	mov	sp, r7
10003082:	b004      	add	sp, #16
10003084:	bd80      	pop	{r7, pc}
10003086:	46c0      	nop			; (mov r8, r8)

10003088 <_ZNSt6vectorIP5FloorSaIS1_EE13_M_insert_auxEN9__gnu_cxx17__normal_iteratorIPS1_S3_EERKS1_>:
10003088:	b5f0      	push	{r4, r5, r6, r7, lr}
1000308a:	b08b      	sub	sp, #44	; 0x2c
1000308c:	af00      	add	r7, sp, #0
1000308e:	60f8      	str	r0, [r7, #12]
10003090:	60b9      	str	r1, [r7, #8]
10003092:	607a      	str	r2, [r7, #4]
10003094:	68fb      	ldr	r3, [r7, #12]
10003096:	685a      	ldr	r2, [r3, #4]
10003098:	68fb      	ldr	r3, [r7, #12]
1000309a:	689b      	ldr	r3, [r3, #8]
1000309c:	429a      	cmp	r2, r3
1000309e:	d02e      	beq.n	100030fe <_ZNSt6vectorIP5FloorSaIS1_EE13_M_insert_auxEN9__gnu_cxx17__normal_iteratorIPS1_S3_EERKS1_+0x76>
100030a0:	68f9      	ldr	r1, [r7, #12]
100030a2:	68fb      	ldr	r3, [r7, #12]
100030a4:	685a      	ldr	r2, [r3, #4]
100030a6:	68fb      	ldr	r3, [r7, #12]
100030a8:	685b      	ldr	r3, [r3, #4]
100030aa:	3b04      	subs	r3, #4
100030ac:	1c08      	adds	r0, r1, #0
100030ae:	1c11      	adds	r1, r2, #0
100030b0:	1c1a      	adds	r2, r3, #0
100030b2:	f7ff ffd7 	bl	10003064 <_ZN9__gnu_cxx14__alloc_traitsISaIP5FloorEE9constructIS2_EEvRS3_PS2_RKT_>
100030b6:	68fb      	ldr	r3, [r7, #12]
100030b8:	685b      	ldr	r3, [r3, #4]
100030ba:	1d1a      	adds	r2, r3, #4
100030bc:	68fb      	ldr	r3, [r7, #12]
100030be:	605a      	str	r2, [r3, #4]
100030c0:	687b      	ldr	r3, [r7, #4]
100030c2:	681b      	ldr	r3, [r3, #0]
100030c4:	627b      	str	r3, [r7, #36]	; 0x24
100030c6:	2308      	movs	r3, #8
100030c8:	18fb      	adds	r3, r7, r3
100030ca:	1c18      	adds	r0, r3, #0
100030cc:	f000 f912 	bl	100032f4 <_ZNK9__gnu_cxx17__normal_iteratorIPP5FloorSt6vectorIS2_SaIS2_EEE4baseEv>
100030d0:	1c03      	adds	r3, r0, #0
100030d2:	6819      	ldr	r1, [r3, #0]
100030d4:	68fb      	ldr	r3, [r7, #12]
100030d6:	685b      	ldr	r3, [r3, #4]
100030d8:	3b08      	subs	r3, #8
100030da:	1c1a      	adds	r2, r3, #0
100030dc:	68fb      	ldr	r3, [r7, #12]
100030de:	685b      	ldr	r3, [r3, #4]
100030e0:	3b04      	subs	r3, #4
100030e2:	1c08      	adds	r0, r1, #0
100030e4:	1c11      	adds	r1, r2, #0
100030e6:	1c1a      	adds	r2, r3, #0
100030e8:	f000 f90e 	bl	10003308 <_ZSt13copy_backwardIPP5FloorS2_ET0_T_S4_S3_>
100030ec:	2308      	movs	r3, #8
100030ee:	18fb      	adds	r3, r7, r3
100030f0:	1c18      	adds	r0, r3, #0
100030f2:	f000 f925 	bl	10003340 <_ZNK9__gnu_cxx17__normal_iteratorIPP5FloorSt6vectorIS2_SaIS2_EEEdeEv>
100030f6:	1c03      	adds	r3, r0, #0
100030f8:	6a7a      	ldr	r2, [r7, #36]	; 0x24
100030fa:	601a      	str	r2, [r3, #0]
100030fc:	e089      	b.n	10003212 <_ZNSt6vectorIP5FloorSaIS1_EE13_M_insert_auxEN9__gnu_cxx17__normal_iteratorIPS1_S3_EERKS1_+0x18a>
100030fe:	68fa      	ldr	r2, [r7, #12]
10003100:	4b45      	ldr	r3, [pc, #276]	; (10003218 <_ZNSt6vectorIP5FloorSaIS1_EE13_M_insert_auxEN9__gnu_cxx17__normal_iteratorIPS1_S3_EERKS1_+0x190>)
10003102:	1c10      	adds	r0, r2, #0
10003104:	2101      	movs	r1, #1
10003106:	1c1a      	adds	r2, r3, #0
10003108:	f000 f924 	bl	10003354 <_ZNKSt6vectorIP5FloorSaIS1_EE12_M_check_lenEjPKc>
1000310c:	1c03      	adds	r3, r0, #0
1000310e:	623b      	str	r3, [r7, #32]
10003110:	68fb      	ldr	r3, [r7, #12]
10003112:	1c18      	adds	r0, r3, #0
10003114:	f000 f96c 	bl	100033f0 <_ZNSt6vectorIP5FloorSaIS1_EE5beginEv>
10003118:	1c03      	adds	r3, r0, #0
1000311a:	613b      	str	r3, [r7, #16]
1000311c:	2308      	movs	r3, #8
1000311e:	18fa      	adds	r2, r7, r3
10003120:	2310      	movs	r3, #16
10003122:	18fb      	adds	r3, r7, r3
10003124:	1c10      	adds	r0, r2, #0
10003126:	1c19      	adds	r1, r3, #0
10003128:	f000 f972 	bl	10003410 <_ZN9__gnu_cxxmiIPP5FloorSt6vectorIS2_SaIS2_EEEENS_17__normal_iteratorIT_T0_E15difference_typeERKSA_SD_>
1000312c:	1c03      	adds	r3, r0, #0
1000312e:	61fb      	str	r3, [r7, #28]
10003130:	68fa      	ldr	r2, [r7, #12]
10003132:	6a3b      	ldr	r3, [r7, #32]
10003134:	1c10      	adds	r0, r2, #0
10003136:	1c19      	adds	r1, r3, #0
10003138:	f000 f982 	bl	10003440 <_ZNSt12_Vector_baseIP5FloorSaIS1_EE11_M_allocateEj>
1000313c:	1c03      	adds	r3, r0, #0
1000313e:	61bb      	str	r3, [r7, #24]
10003140:	69bb      	ldr	r3, [r7, #24]
10003142:	617b      	str	r3, [r7, #20]
10003144:	68f9      	ldr	r1, [r7, #12]
10003146:	69fb      	ldr	r3, [r7, #28]
10003148:	009b      	lsls	r3, r3, #2
1000314a:	69ba      	ldr	r2, [r7, #24]
1000314c:	18d2      	adds	r2, r2, r3
1000314e:	687b      	ldr	r3, [r7, #4]
10003150:	1c08      	adds	r0, r1, #0
10003152:	1c11      	adds	r1, r2, #0
10003154:	1c1a      	adds	r2, r3, #0
10003156:	f7ff ff85 	bl	10003064 <_ZN9__gnu_cxx14__alloc_traitsISaIP5FloorEE9constructIS2_EEvRS3_PS2_RKT_>
1000315a:	2300      	movs	r3, #0
1000315c:	617b      	str	r3, [r7, #20]
1000315e:	68fb      	ldr	r3, [r7, #12]
10003160:	681d      	ldr	r5, [r3, #0]
10003162:	2308      	movs	r3, #8
10003164:	18fb      	adds	r3, r7, r3
10003166:	1c18      	adds	r0, r3, #0
10003168:	f000 f8c4 	bl	100032f4 <_ZNK9__gnu_cxx17__normal_iteratorIPP5FloorSt6vectorIS2_SaIS2_EEE4baseEv>
1000316c:	1c03      	adds	r3, r0, #0
1000316e:	681c      	ldr	r4, [r3, #0]
10003170:	68fb      	ldr	r3, [r7, #12]
10003172:	1c18      	adds	r0, r3, #0
10003174:	f7ff ff5c 	bl	10003030 <_ZNSt12_Vector_baseIP5FloorSaIS1_EE19_M_get_Tp_allocatorEv>
10003178:	1c06      	adds	r6, r0, #0
1000317a:	69bb      	ldr	r3, [r7, #24]
1000317c:	1c28      	adds	r0, r5, #0
1000317e:	1c21      	adds	r1, r4, #0
10003180:	1c1a      	adds	r2, r3, #0
10003182:	1c33      	adds	r3, r6, #0
10003184:	f000 f972 	bl	1000346c <_ZSt34__uninitialized_move_if_noexcept_aIPP5FloorS2_SaIS1_EET0_T_S5_S4_RT1_>
10003188:	1c03      	adds	r3, r0, #0
1000318a:	617b      	str	r3, [r7, #20]
1000318c:	697b      	ldr	r3, [r7, #20]
1000318e:	3304      	adds	r3, #4
10003190:	617b      	str	r3, [r7, #20]
10003192:	2308      	movs	r3, #8
10003194:	18fb      	adds	r3, r7, r3
10003196:	1c18      	adds	r0, r3, #0
10003198:	f000 f8ac 	bl	100032f4 <_ZNK9__gnu_cxx17__normal_iteratorIPP5FloorSt6vectorIS2_SaIS2_EEE4baseEv>
1000319c:	1c03      	adds	r3, r0, #0
1000319e:	681d      	ldr	r5, [r3, #0]
100031a0:	68fb      	ldr	r3, [r7, #12]
100031a2:	685c      	ldr	r4, [r3, #4]
100031a4:	68fb      	ldr	r3, [r7, #12]
100031a6:	1c18      	adds	r0, r3, #0
100031a8:	f7ff ff42 	bl	10003030 <_ZNSt12_Vector_baseIP5FloorSaIS1_EE19_M_get_Tp_allocatorEv>
100031ac:	1c06      	adds	r6, r0, #0
100031ae:	697b      	ldr	r3, [r7, #20]
100031b0:	1c28      	adds	r0, r5, #0
100031b2:	1c21      	adds	r1, r4, #0
100031b4:	1c1a      	adds	r2, r3, #0
100031b6:	1c33      	adds	r3, r6, #0
100031b8:	f000 f958 	bl	1000346c <_ZSt34__uninitialized_move_if_noexcept_aIPP5FloorS2_SaIS1_EET0_T_S5_S4_RT1_>
100031bc:	1c03      	adds	r3, r0, #0
100031be:	617b      	str	r3, [r7, #20]
100031c0:	68fb      	ldr	r3, [r7, #12]
100031c2:	681d      	ldr	r5, [r3, #0]
100031c4:	68fb      	ldr	r3, [r7, #12]
100031c6:	685c      	ldr	r4, [r3, #4]
100031c8:	68fb      	ldr	r3, [r7, #12]
100031ca:	1c18      	adds	r0, r3, #0
100031cc:	f7ff ff30 	bl	10003030 <_ZNSt12_Vector_baseIP5FloorSaIS1_EE19_M_get_Tp_allocatorEv>
100031d0:	1c03      	adds	r3, r0, #0
100031d2:	1c28      	adds	r0, r5, #0
100031d4:	1c21      	adds	r1, r4, #0
100031d6:	1c1a      	adds	r2, r3, #0
100031d8:	f7ff ff34 	bl	10003044 <_ZSt8_DestroyIPP5FloorS1_EvT_S3_RSaIT0_E>
100031dc:	68f9      	ldr	r1, [r7, #12]
100031de:	68fb      	ldr	r3, [r7, #12]
100031e0:	681a      	ldr	r2, [r3, #0]
100031e2:	68fb      	ldr	r3, [r7, #12]
100031e4:	689b      	ldr	r3, [r3, #8]
100031e6:	1c18      	adds	r0, r3, #0
100031e8:	68fb      	ldr	r3, [r7, #12]
100031ea:	681b      	ldr	r3, [r3, #0]
100031ec:	1ac3      	subs	r3, r0, r3
100031ee:	109b      	asrs	r3, r3, #2
100031f0:	1c08      	adds	r0, r1, #0
100031f2:	1c11      	adds	r1, r2, #0
100031f4:	1c1a      	adds	r2, r3, #0
100031f6:	f000 f847 	bl	10003288 <_ZNSt12_Vector_baseIP5FloorSaIS1_EE13_M_deallocateEPS1_j>
100031fa:	68fb      	ldr	r3, [r7, #12]
100031fc:	69ba      	ldr	r2, [r7, #24]
100031fe:	601a      	str	r2, [r3, #0]
10003200:	68fb      	ldr	r3, [r7, #12]
10003202:	697a      	ldr	r2, [r7, #20]
10003204:	605a      	str	r2, [r3, #4]
10003206:	6a3b      	ldr	r3, [r7, #32]
10003208:	009b      	lsls	r3, r3, #2
1000320a:	69ba      	ldr	r2, [r7, #24]
1000320c:	18d2      	adds	r2, r2, r3
1000320e:	68fb      	ldr	r3, [r7, #12]
10003210:	609a      	str	r2, [r3, #8]
10003212:	46bd      	mov	sp, r7
10003214:	b00b      	add	sp, #44	; 0x2c
10003216:	bdf0      	pop	{r4, r5, r6, r7, pc}
10003218:	100047e8 	.word	0x100047e8

1000321c <_ZNSt6vectorIP5FloorSaIS1_EE3endEv>:
1000321c:	b580      	push	{r7, lr}
1000321e:	b084      	sub	sp, #16
10003220:	af00      	add	r7, sp, #0
10003222:	6078      	str	r0, [r7, #4]
10003224:	687b      	ldr	r3, [r7, #4]
10003226:	3304      	adds	r3, #4
10003228:	220c      	movs	r2, #12
1000322a:	18ba      	adds	r2, r7, r2
1000322c:	1c10      	adds	r0, r2, #0
1000322e:	1c19      	adds	r1, r3, #0
10003230:	f000 f92e 	bl	10003490 <_ZN9__gnu_cxx17__normal_iteratorIPP5FloorSt6vectorIS2_SaIS2_EEEC1ERKS3_>
10003234:	68fb      	ldr	r3, [r7, #12]
10003236:	1c18      	adds	r0, r3, #0
10003238:	46bd      	mov	sp, r7
1000323a:	b004      	add	sp, #16
1000323c:	bd80      	pop	{r7, pc}
1000323e:	46c0      	nop			; (mov r8, r8)

10003240 <_ZNSt12_Vector_baseIP5FloorSaIS1_EE12_Vector_implC1Ev>:
10003240:	b580      	push	{r7, lr}
10003242:	b082      	sub	sp, #8
10003244:	af00      	add	r7, sp, #0
10003246:	6078      	str	r0, [r7, #4]
10003248:	687b      	ldr	r3, [r7, #4]
1000324a:	1c18      	adds	r0, r3, #0
1000324c:	f000 f92e 	bl	100034ac <_ZNSaIP5FloorEC1Ev>
10003250:	687b      	ldr	r3, [r7, #4]
10003252:	2200      	movs	r2, #0
10003254:	601a      	str	r2, [r3, #0]
10003256:	687b      	ldr	r3, [r7, #4]
10003258:	2200      	movs	r2, #0
1000325a:	605a      	str	r2, [r3, #4]
1000325c:	687b      	ldr	r3, [r7, #4]
1000325e:	2200      	movs	r2, #0
10003260:	609a      	str	r2, [r3, #8]
10003262:	687b      	ldr	r3, [r7, #4]
10003264:	1c18      	adds	r0, r3, #0
10003266:	46bd      	mov	sp, r7
10003268:	b002      	add	sp, #8
1000326a:	bd80      	pop	{r7, pc}

1000326c <_ZNSaIP5FloorED1Ev>:
1000326c:	b580      	push	{r7, lr}
1000326e:	b082      	sub	sp, #8
10003270:	af00      	add	r7, sp, #0
10003272:	6078      	str	r0, [r7, #4]
10003274:	687b      	ldr	r3, [r7, #4]
10003276:	1c18      	adds	r0, r3, #0
10003278:	f000 f926 	bl	100034c8 <_ZN9__gnu_cxx13new_allocatorIP5FloorED1Ev>
1000327c:	687b      	ldr	r3, [r7, #4]
1000327e:	1c18      	adds	r0, r3, #0
10003280:	46bd      	mov	sp, r7
10003282:	b002      	add	sp, #8
10003284:	bd80      	pop	{r7, pc}
10003286:	46c0      	nop			; (mov r8, r8)

10003288 <_ZNSt12_Vector_baseIP5FloorSaIS1_EE13_M_deallocateEPS1_j>:
10003288:	b580      	push	{r7, lr}
1000328a:	b084      	sub	sp, #16
1000328c:	af00      	add	r7, sp, #0
1000328e:	60f8      	str	r0, [r7, #12]
10003290:	60b9      	str	r1, [r7, #8]
10003292:	607a      	str	r2, [r7, #4]
10003294:	68bb      	ldr	r3, [r7, #8]
10003296:	2b00      	cmp	r3, #0
10003298:	d007      	beq.n	100032aa <_ZNSt12_Vector_baseIP5FloorSaIS1_EE13_M_deallocateEPS1_j+0x22>
1000329a:	68f9      	ldr	r1, [r7, #12]
1000329c:	68ba      	ldr	r2, [r7, #8]
1000329e:	687b      	ldr	r3, [r7, #4]
100032a0:	1c08      	adds	r0, r1, #0
100032a2:	1c11      	adds	r1, r2, #0
100032a4:	1c1a      	adds	r2, r3, #0
100032a6:	f000 f919 	bl	100034dc <_ZN9__gnu_cxx14__alloc_traitsISaIP5FloorEE10deallocateERS3_PS2_j>
100032aa:	46bd      	mov	sp, r7
100032ac:	b004      	add	sp, #16
100032ae:	bd80      	pop	{r7, pc}

100032b0 <_ZSt8_DestroyIPP5FloorEvT_S3_>:
100032b0:	b580      	push	{r7, lr}
100032b2:	b082      	sub	sp, #8
100032b4:	af00      	add	r7, sp, #0
100032b6:	6078      	str	r0, [r7, #4]
100032b8:	6039      	str	r1, [r7, #0]
100032ba:	687a      	ldr	r2, [r7, #4]
100032bc:	683b      	ldr	r3, [r7, #0]
100032be:	1c10      	adds	r0, r2, #0
100032c0:	1c19      	adds	r1, r3, #0
100032c2:	f000 f91d 	bl	10003500 <_ZNSt12_Destroy_auxILb1EE9__destroyIPP5FloorEEvT_S5_>
100032c6:	46bd      	mov	sp, r7
100032c8:	b002      	add	sp, #8
100032ca:	bd80      	pop	{r7, pc}

100032cc <_ZN9__gnu_cxx13new_allocatorIP5FloorE9constructEPS2_RKS2_>:
100032cc:	b580      	push	{r7, lr}
100032ce:	b084      	sub	sp, #16
100032d0:	af00      	add	r7, sp, #0
100032d2:	60f8      	str	r0, [r7, #12]
100032d4:	60b9      	str	r1, [r7, #8]
100032d6:	607a      	str	r2, [r7, #4]
100032d8:	68bb      	ldr	r3, [r7, #8]
100032da:	2004      	movs	r0, #4
100032dc:	1c19      	adds	r1, r3, #0
100032de:	f7fe f87b 	bl	100013d8 <_ZnwjPv>
100032e2:	1e03      	subs	r3, r0, #0
100032e4:	d002      	beq.n	100032ec <_ZN9__gnu_cxx13new_allocatorIP5FloorE9constructEPS2_RKS2_+0x20>
100032e6:	687a      	ldr	r2, [r7, #4]
100032e8:	6812      	ldr	r2, [r2, #0]
100032ea:	601a      	str	r2, [r3, #0]
100032ec:	46bd      	mov	sp, r7
100032ee:	b004      	add	sp, #16
100032f0:	bd80      	pop	{r7, pc}
100032f2:	46c0      	nop			; (mov r8, r8)

100032f4 <_ZNK9__gnu_cxx17__normal_iteratorIPP5FloorSt6vectorIS2_SaIS2_EEE4baseEv>:
100032f4:	b580      	push	{r7, lr}
100032f6:	b082      	sub	sp, #8
100032f8:	af00      	add	r7, sp, #0
100032fa:	6078      	str	r0, [r7, #4]
100032fc:	687b      	ldr	r3, [r7, #4]
100032fe:	1c18      	adds	r0, r3, #0
10003300:	46bd      	mov	sp, r7
10003302:	b002      	add	sp, #8
10003304:	bd80      	pop	{r7, pc}
10003306:	46c0      	nop			; (mov r8, r8)

10003308 <_ZSt13copy_backwardIPP5FloorS2_ET0_T_S4_S3_>:
10003308:	b590      	push	{r4, r7, lr}
1000330a:	b085      	sub	sp, #20
1000330c:	af00      	add	r7, sp, #0
1000330e:	60f8      	str	r0, [r7, #12]
10003310:	60b9      	str	r1, [r7, #8]
10003312:	607a      	str	r2, [r7, #4]
10003314:	68fb      	ldr	r3, [r7, #12]
10003316:	1c18      	adds	r0, r3, #0
10003318:	f000 f8fa 	bl	10003510 <_ZSt12__miter_baseIPP5FloorENSt11_Miter_baseIT_E13iterator_typeES4_>
1000331c:	1c04      	adds	r4, r0, #0
1000331e:	68bb      	ldr	r3, [r7, #8]
10003320:	1c18      	adds	r0, r3, #0
10003322:	f000 f8f5 	bl	10003510 <_ZSt12__miter_baseIPP5FloorENSt11_Miter_baseIT_E13iterator_typeES4_>
10003326:	1c02      	adds	r2, r0, #0
10003328:	687b      	ldr	r3, [r7, #4]
1000332a:	1c20      	adds	r0, r4, #0
1000332c:	1c11      	adds	r1, r2, #0
1000332e:	1c1a      	adds	r2, r3, #0
10003330:	f000 f8fc 	bl	1000352c <_ZSt23__copy_move_backward_a2ILb0EPP5FloorS2_ET1_T0_S4_S3_>
10003334:	1c03      	adds	r3, r0, #0
10003336:	1c18      	adds	r0, r3, #0
10003338:	46bd      	mov	sp, r7
1000333a:	b005      	add	sp, #20
1000333c:	bd90      	pop	{r4, r7, pc}
1000333e:	46c0      	nop			; (mov r8, r8)

10003340 <_ZNK9__gnu_cxx17__normal_iteratorIPP5FloorSt6vectorIS2_SaIS2_EEEdeEv>:
10003340:	b580      	push	{r7, lr}
10003342:	b082      	sub	sp, #8
10003344:	af00      	add	r7, sp, #0
10003346:	6078      	str	r0, [r7, #4]
10003348:	687b      	ldr	r3, [r7, #4]
1000334a:	681b      	ldr	r3, [r3, #0]
1000334c:	1c18      	adds	r0, r3, #0
1000334e:	46bd      	mov	sp, r7
10003350:	b002      	add	sp, #8
10003352:	bd80      	pop	{r7, pc}

10003354 <_ZNKSt6vectorIP5FloorSaIS1_EE12_M_check_lenEjPKc>:
10003354:	b590      	push	{r4, r7, lr}
10003356:	b087      	sub	sp, #28
10003358:	af00      	add	r7, sp, #0
1000335a:	60f8      	str	r0, [r7, #12]
1000335c:	60b9      	str	r1, [r7, #8]
1000335e:	607a      	str	r2, [r7, #4]
10003360:	68fb      	ldr	r3, [r7, #12]
10003362:	1c18      	adds	r0, r3, #0
10003364:	f000 f902 	bl	1000356c <_ZNKSt6vectorIP5FloorSaIS1_EE8max_sizeEv>
10003368:	1c04      	adds	r4, r0, #0
1000336a:	68fb      	ldr	r3, [r7, #12]
1000336c:	1c18      	adds	r0, r3, #0
1000336e:	f7ff fe15 	bl	10002f9c <_ZNKSt6vectorIP5FloorSaIS1_EE4sizeEv>
10003372:	1c03      	adds	r3, r0, #0
10003374:	1ae2      	subs	r2, r4, r3
10003376:	68bb      	ldr	r3, [r7, #8]
10003378:	429a      	cmp	r2, r3
1000337a:	419b      	sbcs	r3, r3
1000337c:	425b      	negs	r3, r3
1000337e:	b2db      	uxtb	r3, r3
10003380:	2b00      	cmp	r3, #0
10003382:	d003      	beq.n	1000338c <_ZNKSt6vectorIP5FloorSaIS1_EE12_M_check_lenEjPKc+0x38>
10003384:	687b      	ldr	r3, [r7, #4]
10003386:	1c18      	adds	r0, r3, #0
10003388:	f000 ff1f 	bl	100041ca <_ZSt20__throw_length_errorPKc>
1000338c:	68fb      	ldr	r3, [r7, #12]
1000338e:	1c18      	adds	r0, r3, #0
10003390:	f7ff fe04 	bl	10002f9c <_ZNKSt6vectorIP5FloorSaIS1_EE4sizeEv>
10003394:	1c04      	adds	r4, r0, #0
10003396:	68fb      	ldr	r3, [r7, #12]
10003398:	1c18      	adds	r0, r3, #0
1000339a:	f7ff fdff 	bl	10002f9c <_ZNKSt6vectorIP5FloorSaIS1_EE4sizeEv>
1000339e:	1c03      	adds	r3, r0, #0
100033a0:	613b      	str	r3, [r7, #16]
100033a2:	2310      	movs	r3, #16
100033a4:	18fa      	adds	r2, r7, r3
100033a6:	2308      	movs	r3, #8
100033a8:	18fb      	adds	r3, r7, r3
100033aa:	1c10      	adds	r0, r2, #0
100033ac:	1c19      	adds	r1, r3, #0
100033ae:	f7fe fc31 	bl	10001c14 <_ZSt3maxIjERKT_S2_S2_>
100033b2:	1c03      	adds	r3, r0, #0
100033b4:	681b      	ldr	r3, [r3, #0]
100033b6:	18e3      	adds	r3, r4, r3
100033b8:	617b      	str	r3, [r7, #20]
100033ba:	68fb      	ldr	r3, [r7, #12]
100033bc:	1c18      	adds	r0, r3, #0
100033be:	f7ff fded 	bl	10002f9c <_ZNKSt6vectorIP5FloorSaIS1_EE4sizeEv>
100033c2:	1e02      	subs	r2, r0, #0
100033c4:	697b      	ldr	r3, [r7, #20]
100033c6:	429a      	cmp	r2, r3
100033c8:	d807      	bhi.n	100033da <_ZNKSt6vectorIP5FloorSaIS1_EE12_M_check_lenEjPKc+0x86>
100033ca:	68fb      	ldr	r3, [r7, #12]
100033cc:	1c18      	adds	r0, r3, #0
100033ce:	f000 f8cd 	bl	1000356c <_ZNKSt6vectorIP5FloorSaIS1_EE8max_sizeEv>
100033d2:	1e02      	subs	r2, r0, #0
100033d4:	697b      	ldr	r3, [r7, #20]
100033d6:	429a      	cmp	r2, r3
100033d8:	d205      	bcs.n	100033e6 <_ZNKSt6vectorIP5FloorSaIS1_EE12_M_check_lenEjPKc+0x92>
100033da:	68fb      	ldr	r3, [r7, #12]
100033dc:	1c18      	adds	r0, r3, #0
100033de:	f000 f8c5 	bl	1000356c <_ZNKSt6vectorIP5FloorSaIS1_EE8max_sizeEv>
100033e2:	1c03      	adds	r3, r0, #0
100033e4:	e000      	b.n	100033e8 <_ZNKSt6vectorIP5FloorSaIS1_EE12_M_check_lenEjPKc+0x94>
100033e6:	697b      	ldr	r3, [r7, #20]
100033e8:	1c18      	adds	r0, r3, #0
100033ea:	46bd      	mov	sp, r7
100033ec:	b007      	add	sp, #28
100033ee:	bd90      	pop	{r4, r7, pc}

100033f0 <_ZNSt6vectorIP5FloorSaIS1_EE5beginEv>:
100033f0:	b580      	push	{r7, lr}
100033f2:	b084      	sub	sp, #16
100033f4:	af00      	add	r7, sp, #0
100033f6:	6078      	str	r0, [r7, #4]
100033f8:	687b      	ldr	r3, [r7, #4]
100033fa:	220c      	movs	r2, #12
100033fc:	18ba      	adds	r2, r7, r2
100033fe:	1c10      	adds	r0, r2, #0
10003400:	1c19      	adds	r1, r3, #0
10003402:	f000 f845 	bl	10003490 <_ZN9__gnu_cxx17__normal_iteratorIPP5FloorSt6vectorIS2_SaIS2_EEEC1ERKS3_>
10003406:	68fb      	ldr	r3, [r7, #12]
10003408:	1c18      	adds	r0, r3, #0
1000340a:	46bd      	mov	sp, r7
1000340c:	b004      	add	sp, #16
1000340e:	bd80      	pop	{r7, pc}

10003410 <_ZN9__gnu_cxxmiIPP5FloorSt6vectorIS2_SaIS2_EEEENS_17__normal_iteratorIT_T0_E15difference_typeERKSA_SD_>:
10003410:	b590      	push	{r4, r7, lr}
10003412:	b083      	sub	sp, #12
10003414:	af00      	add	r7, sp, #0
10003416:	6078      	str	r0, [r7, #4]
10003418:	6039      	str	r1, [r7, #0]
1000341a:	687b      	ldr	r3, [r7, #4]
1000341c:	1c18      	adds	r0, r3, #0
1000341e:	f7ff ff69 	bl	100032f4 <_ZNK9__gnu_cxx17__normal_iteratorIPP5FloorSt6vectorIS2_SaIS2_EEE4baseEv>
10003422:	1c03      	adds	r3, r0, #0
10003424:	681b      	ldr	r3, [r3, #0]
10003426:	1c1c      	adds	r4, r3, #0
10003428:	683b      	ldr	r3, [r7, #0]
1000342a:	1c18      	adds	r0, r3, #0
1000342c:	f7ff ff62 	bl	100032f4 <_ZNK9__gnu_cxx17__normal_iteratorIPP5FloorSt6vectorIS2_SaIS2_EEE4baseEv>
10003430:	1c03      	adds	r3, r0, #0
10003432:	681b      	ldr	r3, [r3, #0]
10003434:	1ae3      	subs	r3, r4, r3
10003436:	109b      	asrs	r3, r3, #2
10003438:	1c18      	adds	r0, r3, #0
1000343a:	46bd      	mov	sp, r7
1000343c:	b003      	add	sp, #12
1000343e:	bd90      	pop	{r4, r7, pc}

10003440 <_ZNSt12_Vector_baseIP5FloorSaIS1_EE11_M_allocateEj>:
10003440:	b580      	push	{r7, lr}
10003442:	b082      	sub	sp, #8
10003444:	af00      	add	r7, sp, #0
10003446:	6078      	str	r0, [r7, #4]
10003448:	6039      	str	r1, [r7, #0]
1000344a:	683b      	ldr	r3, [r7, #0]
1000344c:	2b00      	cmp	r3, #0
1000344e:	d007      	beq.n	10003460 <_ZNSt12_Vector_baseIP5FloorSaIS1_EE11_M_allocateEj+0x20>
10003450:	687a      	ldr	r2, [r7, #4]
10003452:	683b      	ldr	r3, [r7, #0]
10003454:	1c10      	adds	r0, r2, #0
10003456:	1c19      	adds	r1, r3, #0
10003458:	f000 f89a 	bl	10003590 <_ZN9__gnu_cxx14__alloc_traitsISaIP5FloorEE8allocateERS3_j>
1000345c:	1c03      	adds	r3, r0, #0
1000345e:	e000      	b.n	10003462 <_ZNSt12_Vector_baseIP5FloorSaIS1_EE11_M_allocateEj+0x22>
10003460:	2300      	movs	r3, #0
10003462:	1c18      	adds	r0, r3, #0
10003464:	46bd      	mov	sp, r7
10003466:	b002      	add	sp, #8
10003468:	bd80      	pop	{r7, pc}
1000346a:	46c0      	nop			; (mov r8, r8)

1000346c <_ZSt34__uninitialized_move_if_noexcept_aIPP5FloorS2_SaIS1_EET0_T_S5_S4_RT1_>:
1000346c:	b580      	push	{r7, lr}
1000346e:	b084      	sub	sp, #16
10003470:	af00      	add	r7, sp, #0
10003472:	60f8      	str	r0, [r7, #12]
10003474:	60b9      	str	r1, [r7, #8]
10003476:	607a      	str	r2, [r7, #4]
10003478:	603b      	str	r3, [r7, #0]
1000347a:	68f8      	ldr	r0, [r7, #12]
1000347c:	68b9      	ldr	r1, [r7, #8]
1000347e:	687a      	ldr	r2, [r7, #4]
10003480:	683b      	ldr	r3, [r7, #0]
10003482:	f000 f897 	bl	100035b4 <_ZSt22__uninitialized_copy_aIPP5FloorS2_S1_ET0_T_S4_S3_RSaIT1_E>
10003486:	1c03      	adds	r3, r0, #0
10003488:	1c18      	adds	r0, r3, #0
1000348a:	46bd      	mov	sp, r7
1000348c:	b004      	add	sp, #16
1000348e:	bd80      	pop	{r7, pc}

10003490 <_ZN9__gnu_cxx17__normal_iteratorIPP5FloorSt6vectorIS2_SaIS2_EEEC1ERKS3_>:
10003490:	b580      	push	{r7, lr}
10003492:	b082      	sub	sp, #8
10003494:	af00      	add	r7, sp, #0
10003496:	6078      	str	r0, [r7, #4]
10003498:	6039      	str	r1, [r7, #0]
1000349a:	683b      	ldr	r3, [r7, #0]
1000349c:	681a      	ldr	r2, [r3, #0]
1000349e:	687b      	ldr	r3, [r7, #4]
100034a0:	601a      	str	r2, [r3, #0]
100034a2:	687b      	ldr	r3, [r7, #4]
100034a4:	1c18      	adds	r0, r3, #0
100034a6:	46bd      	mov	sp, r7
100034a8:	b002      	add	sp, #8
100034aa:	bd80      	pop	{r7, pc}

100034ac <_ZNSaIP5FloorEC1Ev>:
100034ac:	b580      	push	{r7, lr}
100034ae:	b082      	sub	sp, #8
100034b0:	af00      	add	r7, sp, #0
100034b2:	6078      	str	r0, [r7, #4]
100034b4:	687b      	ldr	r3, [r7, #4]
100034b6:	1c18      	adds	r0, r3, #0
100034b8:	f000 f890 	bl	100035dc <_ZN9__gnu_cxx13new_allocatorIP5FloorEC1Ev>
100034bc:	687b      	ldr	r3, [r7, #4]
100034be:	1c18      	adds	r0, r3, #0
100034c0:	46bd      	mov	sp, r7
100034c2:	b002      	add	sp, #8
100034c4:	bd80      	pop	{r7, pc}
100034c6:	46c0      	nop			; (mov r8, r8)

100034c8 <_ZN9__gnu_cxx13new_allocatorIP5FloorED1Ev>:
100034c8:	b580      	push	{r7, lr}
100034ca:	b082      	sub	sp, #8
100034cc:	af00      	add	r7, sp, #0
100034ce:	6078      	str	r0, [r7, #4]
100034d0:	687b      	ldr	r3, [r7, #4]
100034d2:	1c18      	adds	r0, r3, #0
100034d4:	46bd      	mov	sp, r7
100034d6:	b002      	add	sp, #8
100034d8:	bd80      	pop	{r7, pc}
100034da:	46c0      	nop			; (mov r8, r8)

100034dc <_ZN9__gnu_cxx14__alloc_traitsISaIP5FloorEE10deallocateERS3_PS2_j>:
100034dc:	b580      	push	{r7, lr}
100034de:	b084      	sub	sp, #16
100034e0:	af00      	add	r7, sp, #0
100034e2:	60f8      	str	r0, [r7, #12]
100034e4:	60b9      	str	r1, [r7, #8]
100034e6:	607a      	str	r2, [r7, #4]
100034e8:	68f9      	ldr	r1, [r7, #12]
100034ea:	68ba      	ldr	r2, [r7, #8]
100034ec:	687b      	ldr	r3, [r7, #4]
100034ee:	1c08      	adds	r0, r1, #0
100034f0:	1c11      	adds	r1, r2, #0
100034f2:	1c1a      	adds	r2, r3, #0
100034f4:	f000 f87c 	bl	100035f0 <_ZN9__gnu_cxx13new_allocatorIP5FloorE10deallocateEPS2_j>
100034f8:	46bd      	mov	sp, r7
100034fa:	b004      	add	sp, #16
100034fc:	bd80      	pop	{r7, pc}
100034fe:	46c0      	nop			; (mov r8, r8)

10003500 <_ZNSt12_Destroy_auxILb1EE9__destroyIPP5FloorEEvT_S5_>:
10003500:	b580      	push	{r7, lr}
10003502:	b082      	sub	sp, #8
10003504:	af00      	add	r7, sp, #0
10003506:	6078      	str	r0, [r7, #4]
10003508:	6039      	str	r1, [r7, #0]
1000350a:	46bd      	mov	sp, r7
1000350c:	b002      	add	sp, #8
1000350e:	bd80      	pop	{r7, pc}

10003510 <_ZSt12__miter_baseIPP5FloorENSt11_Miter_baseIT_E13iterator_typeES4_>:
10003510:	b580      	push	{r7, lr}
10003512:	b082      	sub	sp, #8
10003514:	af00      	add	r7, sp, #0
10003516:	6078      	str	r0, [r7, #4]
10003518:	687b      	ldr	r3, [r7, #4]
1000351a:	1c18      	adds	r0, r3, #0
1000351c:	f000 f876 	bl	1000360c <_ZNSt10_Iter_baseIPP5FloorLb0EE7_S_baseES2_>
10003520:	1c03      	adds	r3, r0, #0
10003522:	1c18      	adds	r0, r3, #0
10003524:	46bd      	mov	sp, r7
10003526:	b002      	add	sp, #8
10003528:	bd80      	pop	{r7, pc}
1000352a:	46c0      	nop			; (mov r8, r8)

1000352c <_ZSt23__copy_move_backward_a2ILb0EPP5FloorS2_ET1_T0_S4_S3_>:
1000352c:	b5b0      	push	{r4, r5, r7, lr}
1000352e:	b084      	sub	sp, #16
10003530:	af00      	add	r7, sp, #0
10003532:	60f8      	str	r0, [r7, #12]
10003534:	60b9      	str	r1, [r7, #8]
10003536:	607a      	str	r2, [r7, #4]
10003538:	68fb      	ldr	r3, [r7, #12]
1000353a:	1c18      	adds	r0, r3, #0
1000353c:	f000 f870 	bl	10003620 <_ZSt12__niter_baseIPP5FloorENSt11_Niter_baseIT_E13iterator_typeES4_>
10003540:	1c05      	adds	r5, r0, #0
10003542:	68bb      	ldr	r3, [r7, #8]
10003544:	1c18      	adds	r0, r3, #0
10003546:	f000 f86b 	bl	10003620 <_ZSt12__niter_baseIPP5FloorENSt11_Niter_baseIT_E13iterator_typeES4_>
1000354a:	1c04      	adds	r4, r0, #0
1000354c:	687b      	ldr	r3, [r7, #4]
1000354e:	1c18      	adds	r0, r3, #0
10003550:	f000 f866 	bl	10003620 <_ZSt12__niter_baseIPP5FloorENSt11_Niter_baseIT_E13iterator_typeES4_>
10003554:	1c03      	adds	r3, r0, #0
10003556:	1c28      	adds	r0, r5, #0
10003558:	1c21      	adds	r1, r4, #0
1000355a:	1c1a      	adds	r2, r3, #0
1000355c:	f000 f86e 	bl	1000363c <_ZSt22__copy_move_backward_aILb0EPP5FloorS2_ET1_T0_S4_S3_>
10003560:	1c03      	adds	r3, r0, #0
10003562:	1c18      	adds	r0, r3, #0
10003564:	46bd      	mov	sp, r7
10003566:	b004      	add	sp, #16
10003568:	bdb0      	pop	{r4, r5, r7, pc}
1000356a:	46c0      	nop			; (mov r8, r8)

1000356c <_ZNKSt6vectorIP5FloorSaIS1_EE8max_sizeEv>:
1000356c:	b580      	push	{r7, lr}
1000356e:	b082      	sub	sp, #8
10003570:	af00      	add	r7, sp, #0
10003572:	6078      	str	r0, [r7, #4]
10003574:	687b      	ldr	r3, [r7, #4]
10003576:	1c18      	adds	r0, r3, #0
10003578:	f000 f886 	bl	10003688 <_ZNKSt12_Vector_baseIP5FloorSaIS1_EE19_M_get_Tp_allocatorEv>
1000357c:	1c03      	adds	r3, r0, #0
1000357e:	1c18      	adds	r0, r3, #0
10003580:	f000 f874 	bl	1000366c <_ZN9__gnu_cxx14__alloc_traitsISaIP5FloorEE8max_sizeERKS3_>
10003584:	1c03      	adds	r3, r0, #0
10003586:	1c18      	adds	r0, r3, #0
10003588:	46bd      	mov	sp, r7
1000358a:	b002      	add	sp, #8
1000358c:	bd80      	pop	{r7, pc}
1000358e:	46c0      	nop			; (mov r8, r8)

10003590 <_ZN9__gnu_cxx14__alloc_traitsISaIP5FloorEE8allocateERS3_j>:
10003590:	b580      	push	{r7, lr}
10003592:	b082      	sub	sp, #8
10003594:	af00      	add	r7, sp, #0
10003596:	6078      	str	r0, [r7, #4]
10003598:	6039      	str	r1, [r7, #0]
1000359a:	687a      	ldr	r2, [r7, #4]
1000359c:	683b      	ldr	r3, [r7, #0]
1000359e:	1c10      	adds	r0, r2, #0
100035a0:	1c19      	adds	r1, r3, #0
100035a2:	2200      	movs	r2, #0
100035a4:	f000 f87a 	bl	1000369c <_ZN9__gnu_cxx13new_allocatorIP5FloorE8allocateEjPKv>
100035a8:	1c03      	adds	r3, r0, #0
100035aa:	1c18      	adds	r0, r3, #0
100035ac:	46bd      	mov	sp, r7
100035ae:	b002      	add	sp, #8
100035b0:	bd80      	pop	{r7, pc}
100035b2:	46c0      	nop			; (mov r8, r8)

100035b4 <_ZSt22__uninitialized_copy_aIPP5FloorS2_S1_ET0_T_S4_S3_RSaIT1_E>:
100035b4:	b580      	push	{r7, lr}
100035b6:	b084      	sub	sp, #16
100035b8:	af00      	add	r7, sp, #0
100035ba:	60f8      	str	r0, [r7, #12]
100035bc:	60b9      	str	r1, [r7, #8]
100035be:	607a      	str	r2, [r7, #4]
100035c0:	603b      	str	r3, [r7, #0]
100035c2:	68f9      	ldr	r1, [r7, #12]
100035c4:	68ba      	ldr	r2, [r7, #8]
100035c6:	687b      	ldr	r3, [r7, #4]
100035c8:	1c08      	adds	r0, r1, #0
100035ca:	1c11      	adds	r1, r2, #0
100035cc:	1c1a      	adds	r2, r3, #0
100035ce:	f000 f883 	bl	100036d8 <_ZSt18uninitialized_copyIPP5FloorS2_ET0_T_S4_S3_>
100035d2:	1c03      	adds	r3, r0, #0
100035d4:	1c18      	adds	r0, r3, #0
100035d6:	46bd      	mov	sp, r7
100035d8:	b004      	add	sp, #16
100035da:	bd80      	pop	{r7, pc}

100035dc <_ZN9__gnu_cxx13new_allocatorIP5FloorEC1Ev>:
100035dc:	b580      	push	{r7, lr}
100035de:	b082      	sub	sp, #8
100035e0:	af00      	add	r7, sp, #0
100035e2:	6078      	str	r0, [r7, #4]
100035e4:	687b      	ldr	r3, [r7, #4]
100035e6:	1c18      	adds	r0, r3, #0
100035e8:	46bd      	mov	sp, r7
100035ea:	b002      	add	sp, #8
100035ec:	bd80      	pop	{r7, pc}
100035ee:	46c0      	nop			; (mov r8, r8)

100035f0 <_ZN9__gnu_cxx13new_allocatorIP5FloorE10deallocateEPS2_j>:
100035f0:	b580      	push	{r7, lr}
100035f2:	b084      	sub	sp, #16
100035f4:	af00      	add	r7, sp, #0
100035f6:	60f8      	str	r0, [r7, #12]
100035f8:	60b9      	str	r1, [r7, #8]
100035fa:	607a      	str	r2, [r7, #4]
100035fc:	68bb      	ldr	r3, [r7, #8]
100035fe:	1c18      	adds	r0, r3, #0
10003600:	f000 fdd6 	bl	100041b0 <_ZdlPv>
10003604:	46bd      	mov	sp, r7
10003606:	b004      	add	sp, #16
10003608:	bd80      	pop	{r7, pc}
1000360a:	46c0      	nop			; (mov r8, r8)

1000360c <_ZNSt10_Iter_baseIPP5FloorLb0EE7_S_baseES2_>:
1000360c:	b580      	push	{r7, lr}
1000360e:	b082      	sub	sp, #8
10003610:	af00      	add	r7, sp, #0
10003612:	6078      	str	r0, [r7, #4]
10003614:	687b      	ldr	r3, [r7, #4]
10003616:	1c18      	adds	r0, r3, #0
10003618:	46bd      	mov	sp, r7
1000361a:	b002      	add	sp, #8
1000361c:	bd80      	pop	{r7, pc}
1000361e:	46c0      	nop			; (mov r8, r8)

10003620 <_ZSt12__niter_baseIPP5FloorENSt11_Niter_baseIT_E13iterator_typeES4_>:
10003620:	b580      	push	{r7, lr}
10003622:	b082      	sub	sp, #8
10003624:	af00      	add	r7, sp, #0
10003626:	6078      	str	r0, [r7, #4]
10003628:	687b      	ldr	r3, [r7, #4]
1000362a:	1c18      	adds	r0, r3, #0
1000362c:	f7ff ffee 	bl	1000360c <_ZNSt10_Iter_baseIPP5FloorLb0EE7_S_baseES2_>
10003630:	1c03      	adds	r3, r0, #0
10003632:	1c18      	adds	r0, r3, #0
10003634:	46bd      	mov	sp, r7
10003636:	b002      	add	sp, #8
10003638:	bd80      	pop	{r7, pc}
1000363a:	46c0      	nop			; (mov r8, r8)

1000363c <_ZSt22__copy_move_backward_aILb0EPP5FloorS2_ET1_T0_S4_S3_>:
1000363c:	b580      	push	{r7, lr}
1000363e:	b086      	sub	sp, #24
10003640:	af00      	add	r7, sp, #0
10003642:	60f8      	str	r0, [r7, #12]
10003644:	60b9      	str	r1, [r7, #8]
10003646:	607a      	str	r2, [r7, #4]
10003648:	2317      	movs	r3, #23
1000364a:	18fb      	adds	r3, r7, r3
1000364c:	2201      	movs	r2, #1
1000364e:	701a      	strb	r2, [r3, #0]
10003650:	68f9      	ldr	r1, [r7, #12]
10003652:	68ba      	ldr	r2, [r7, #8]
10003654:	687b      	ldr	r3, [r7, #4]
10003656:	1c08      	adds	r0, r1, #0
10003658:	1c11      	adds	r1, r2, #0
1000365a:	1c1a      	adds	r2, r3, #0
1000365c:	f000 f854 	bl	10003708 <_ZNSt20__copy_move_backwardILb0ELb1ESt26random_access_iterator_tagE13__copy_move_bIP5FloorEEPT_PKS5_S8_S6_>
10003660:	1c03      	adds	r3, r0, #0
10003662:	1c18      	adds	r0, r3, #0
10003664:	46bd      	mov	sp, r7
10003666:	b006      	add	sp, #24
10003668:	bd80      	pop	{r7, pc}
1000366a:	46c0      	nop			; (mov r8, r8)

1000366c <_ZN9__gnu_cxx14__alloc_traitsISaIP5FloorEE8max_sizeERKS3_>:
1000366c:	b580      	push	{r7, lr}
1000366e:	b082      	sub	sp, #8
10003670:	af00      	add	r7, sp, #0
10003672:	6078      	str	r0, [r7, #4]
10003674:	687b      	ldr	r3, [r7, #4]
10003676:	1c18      	adds	r0, r3, #0
10003678:	f000 f86a 	bl	10003750 <_ZNK9__gnu_cxx13new_allocatorIP5FloorE8max_sizeEv>
1000367c:	1c03      	adds	r3, r0, #0
1000367e:	1c18      	adds	r0, r3, #0
10003680:	46bd      	mov	sp, r7
10003682:	b002      	add	sp, #8
10003684:	bd80      	pop	{r7, pc}
10003686:	46c0      	nop			; (mov r8, r8)

10003688 <_ZNKSt12_Vector_baseIP5FloorSaIS1_EE19_M_get_Tp_allocatorEv>:
10003688:	b580      	push	{r7, lr}
1000368a:	b082      	sub	sp, #8
1000368c:	af00      	add	r7, sp, #0
1000368e:	6078      	str	r0, [r7, #4]
10003690:	687b      	ldr	r3, [r7, #4]
10003692:	1c18      	adds	r0, r3, #0
10003694:	46bd      	mov	sp, r7
10003696:	b002      	add	sp, #8
10003698:	bd80      	pop	{r7, pc}
1000369a:	46c0      	nop			; (mov r8, r8)

1000369c <_ZN9__gnu_cxx13new_allocatorIP5FloorE8allocateEjPKv>:
1000369c:	b580      	push	{r7, lr}
1000369e:	b084      	sub	sp, #16
100036a0:	af00      	add	r7, sp, #0
100036a2:	60f8      	str	r0, [r7, #12]
100036a4:	60b9      	str	r1, [r7, #8]
100036a6:	607a      	str	r2, [r7, #4]
100036a8:	68fb      	ldr	r3, [r7, #12]
100036aa:	1c18      	adds	r0, r3, #0
100036ac:	f000 f850 	bl	10003750 <_ZNK9__gnu_cxx13new_allocatorIP5FloorE8max_sizeEv>
100036b0:	1c02      	adds	r2, r0, #0
100036b2:	68bb      	ldr	r3, [r7, #8]
100036b4:	429a      	cmp	r2, r3
100036b6:	419b      	sbcs	r3, r3
100036b8:	425b      	negs	r3, r3
100036ba:	b2db      	uxtb	r3, r3
100036bc:	2b00      	cmp	r3, #0
100036be:	d001      	beq.n	100036c4 <_ZN9__gnu_cxx13new_allocatorIP5FloorE8allocateEjPKv+0x28>
100036c0:	f000 fd80 	bl	100041c4 <_ZSt17__throw_bad_allocv>
100036c4:	68bb      	ldr	r3, [r7, #8]
100036c6:	009b      	lsls	r3, r3, #2
100036c8:	1c18      	adds	r0, r3, #0
100036ca:	f000 fd5f 	bl	1000418c <_Znwj>
100036ce:	1c03      	adds	r3, r0, #0
100036d0:	1c18      	adds	r0, r3, #0
100036d2:	46bd      	mov	sp, r7
100036d4:	b004      	add	sp, #16
100036d6:	bd80      	pop	{r7, pc}

100036d8 <_ZSt18uninitialized_copyIPP5FloorS2_ET0_T_S4_S3_>:
100036d8:	b580      	push	{r7, lr}
100036da:	b086      	sub	sp, #24
100036dc:	af00      	add	r7, sp, #0
100036de:	60f8      	str	r0, [r7, #12]
100036e0:	60b9      	str	r1, [r7, #8]
100036e2:	607a      	str	r2, [r7, #4]
100036e4:	2317      	movs	r3, #23
100036e6:	18fb      	adds	r3, r7, r3
100036e8:	2201      	movs	r2, #1
100036ea:	701a      	strb	r2, [r3, #0]
100036ec:	68f9      	ldr	r1, [r7, #12]
100036ee:	68ba      	ldr	r2, [r7, #8]
100036f0:	687b      	ldr	r3, [r7, #4]
100036f2:	1c08      	adds	r0, r1, #0
100036f4:	1c11      	adds	r1, r2, #0
100036f6:	1c1a      	adds	r2, r3, #0
100036f8:	f000 f836 	bl	10003768 <_ZNSt20__uninitialized_copyILb1EE13__uninit_copyIPP5FloorS4_EET0_T_S6_S5_>
100036fc:	1c03      	adds	r3, r0, #0
100036fe:	1c18      	adds	r0, r3, #0
10003700:	46bd      	mov	sp, r7
10003702:	b006      	add	sp, #24
10003704:	bd80      	pop	{r7, pc}
10003706:	46c0      	nop			; (mov r8, r8)

10003708 <_ZNSt20__copy_move_backwardILb0ELb1ESt26random_access_iterator_tagE13__copy_move_bIP5FloorEEPT_PKS5_S8_S6_>:
10003708:	b580      	push	{r7, lr}
1000370a:	b086      	sub	sp, #24
1000370c:	af00      	add	r7, sp, #0
1000370e:	60f8      	str	r0, [r7, #12]
10003710:	60b9      	str	r1, [r7, #8]
10003712:	607a      	str	r2, [r7, #4]
10003714:	68ba      	ldr	r2, [r7, #8]
10003716:	68fb      	ldr	r3, [r7, #12]
10003718:	1ad3      	subs	r3, r2, r3
1000371a:	109b      	asrs	r3, r3, #2
1000371c:	617b      	str	r3, [r7, #20]
1000371e:	697b      	ldr	r3, [r7, #20]
10003720:	2b00      	cmp	r3, #0
10003722:	d00c      	beq.n	1000373e <_ZNSt20__copy_move_backwardILb0ELb1ESt26random_access_iterator_tagE13__copy_move_bIP5FloorEEPT_PKS5_S8_S6_+0x36>
10003724:	697b      	ldr	r3, [r7, #20]
10003726:	009b      	lsls	r3, r3, #2
10003728:	425b      	negs	r3, r3
1000372a:	687a      	ldr	r2, [r7, #4]
1000372c:	18d1      	adds	r1, r2, r3
1000372e:	697b      	ldr	r3, [r7, #20]
10003730:	009b      	lsls	r3, r3, #2
10003732:	68fa      	ldr	r2, [r7, #12]
10003734:	1c08      	adds	r0, r1, #0
10003736:	1c11      	adds	r1, r2, #0
10003738:	1c1a      	adds	r2, r3, #0
1000373a:	f000 fee7 	bl	1000450c <memmove>
1000373e:	697b      	ldr	r3, [r7, #20]
10003740:	009b      	lsls	r3, r3, #2
10003742:	425b      	negs	r3, r3
10003744:	687a      	ldr	r2, [r7, #4]
10003746:	18d3      	adds	r3, r2, r3
10003748:	1c18      	adds	r0, r3, #0
1000374a:	46bd      	mov	sp, r7
1000374c:	b006      	add	sp, #24
1000374e:	bd80      	pop	{r7, pc}

10003750 <_ZNK9__gnu_cxx13new_allocatorIP5FloorE8max_sizeEv>:
10003750:	b580      	push	{r7, lr}
10003752:	b082      	sub	sp, #8
10003754:	af00      	add	r7, sp, #0
10003756:	6078      	str	r0, [r7, #4]
10003758:	4b02      	ldr	r3, [pc, #8]	; (10003764 <_ZNK9__gnu_cxx13new_allocatorIP5FloorE8max_sizeEv+0x14>)
1000375a:	1c18      	adds	r0, r3, #0
1000375c:	46bd      	mov	sp, r7
1000375e:	b002      	add	sp, #8
10003760:	bd80      	pop	{r7, pc}
10003762:	46c0      	nop			; (mov r8, r8)
10003764:	3fffffff 	.word	0x3fffffff

10003768 <_ZNSt20__uninitialized_copyILb1EE13__uninit_copyIPP5FloorS4_EET0_T_S6_S5_>:
10003768:	b580      	push	{r7, lr}
1000376a:	b084      	sub	sp, #16
1000376c:	af00      	add	r7, sp, #0
1000376e:	60f8      	str	r0, [r7, #12]
10003770:	60b9      	str	r1, [r7, #8]
10003772:	607a      	str	r2, [r7, #4]
10003774:	68f9      	ldr	r1, [r7, #12]
10003776:	68ba      	ldr	r2, [r7, #8]
10003778:	687b      	ldr	r3, [r7, #4]
1000377a:	1c08      	adds	r0, r1, #0
1000377c:	1c11      	adds	r1, r2, #0
1000377e:	1c1a      	adds	r2, r3, #0
10003780:	f000 f806 	bl	10003790 <_ZSt4copyIPP5FloorS2_ET0_T_S4_S3_>
10003784:	1c03      	adds	r3, r0, #0
10003786:	1c18      	adds	r0, r3, #0
10003788:	46bd      	mov	sp, r7
1000378a:	b004      	add	sp, #16
1000378c:	bd80      	pop	{r7, pc}
1000378e:	46c0      	nop			; (mov r8, r8)

10003790 <_ZSt4copyIPP5FloorS2_ET0_T_S4_S3_>:
10003790:	b590      	push	{r4, r7, lr}
10003792:	b085      	sub	sp, #20
10003794:	af00      	add	r7, sp, #0
10003796:	60f8      	str	r0, [r7, #12]
10003798:	60b9      	str	r1, [r7, #8]
1000379a:	607a      	str	r2, [r7, #4]
1000379c:	68fb      	ldr	r3, [r7, #12]
1000379e:	1c18      	adds	r0, r3, #0
100037a0:	f7ff feb6 	bl	10003510 <_ZSt12__miter_baseIPP5FloorENSt11_Miter_baseIT_E13iterator_typeES4_>
100037a4:	1c04      	adds	r4, r0, #0
100037a6:	68bb      	ldr	r3, [r7, #8]
100037a8:	1c18      	adds	r0, r3, #0
100037aa:	f7ff feb1 	bl	10003510 <_ZSt12__miter_baseIPP5FloorENSt11_Miter_baseIT_E13iterator_typeES4_>
100037ae:	1c02      	adds	r2, r0, #0
100037b0:	687b      	ldr	r3, [r7, #4]
100037b2:	1c20      	adds	r0, r4, #0
100037b4:	1c11      	adds	r1, r2, #0
100037b6:	1c1a      	adds	r2, r3, #0
100037b8:	f000 f806 	bl	100037c8 <_ZSt14__copy_move_a2ILb0EPP5FloorS2_ET1_T0_S4_S3_>
100037bc:	1c03      	adds	r3, r0, #0
100037be:	1c18      	adds	r0, r3, #0
100037c0:	46bd      	mov	sp, r7
100037c2:	b005      	add	sp, #20
100037c4:	bd90      	pop	{r4, r7, pc}
100037c6:	46c0      	nop			; (mov r8, r8)

100037c8 <_ZSt14__copy_move_a2ILb0EPP5FloorS2_ET1_T0_S4_S3_>:
100037c8:	b5b0      	push	{r4, r5, r7, lr}
100037ca:	b084      	sub	sp, #16
100037cc:	af00      	add	r7, sp, #0
100037ce:	60f8      	str	r0, [r7, #12]
100037d0:	60b9      	str	r1, [r7, #8]
100037d2:	607a      	str	r2, [r7, #4]
100037d4:	68fb      	ldr	r3, [r7, #12]
100037d6:	1c18      	adds	r0, r3, #0
100037d8:	f7ff ff22 	bl	10003620 <_ZSt12__niter_baseIPP5FloorENSt11_Niter_baseIT_E13iterator_typeES4_>
100037dc:	1c05      	adds	r5, r0, #0
100037de:	68bb      	ldr	r3, [r7, #8]
100037e0:	1c18      	adds	r0, r3, #0
100037e2:	f7ff ff1d 	bl	10003620 <_ZSt12__niter_baseIPP5FloorENSt11_Niter_baseIT_E13iterator_typeES4_>
100037e6:	1c04      	adds	r4, r0, #0
100037e8:	687b      	ldr	r3, [r7, #4]
100037ea:	1c18      	adds	r0, r3, #0
100037ec:	f7ff ff18 	bl	10003620 <_ZSt12__niter_baseIPP5FloorENSt11_Niter_baseIT_E13iterator_typeES4_>
100037f0:	1c03      	adds	r3, r0, #0
100037f2:	1c28      	adds	r0, r5, #0
100037f4:	1c21      	adds	r1, r4, #0
100037f6:	1c1a      	adds	r2, r3, #0
100037f8:	f000 f806 	bl	10003808 <_ZSt13__copy_move_aILb0EPP5FloorS2_ET1_T0_S4_S3_>
100037fc:	1c03      	adds	r3, r0, #0
100037fe:	1c18      	adds	r0, r3, #0
10003800:	46bd      	mov	sp, r7
10003802:	b004      	add	sp, #16
10003804:	bdb0      	pop	{r4, r5, r7, pc}
10003806:	46c0      	nop			; (mov r8, r8)

10003808 <_ZSt13__copy_move_aILb0EPP5FloorS2_ET1_T0_S4_S3_>:
10003808:	b580      	push	{r7, lr}
1000380a:	b086      	sub	sp, #24
1000380c:	af00      	add	r7, sp, #0
1000380e:	60f8      	str	r0, [r7, #12]
10003810:	60b9      	str	r1, [r7, #8]
10003812:	607a      	str	r2, [r7, #4]
10003814:	2317      	movs	r3, #23
10003816:	18fb      	adds	r3, r7, r3
10003818:	2201      	movs	r2, #1
1000381a:	701a      	strb	r2, [r3, #0]
1000381c:	68f9      	ldr	r1, [r7, #12]
1000381e:	68ba      	ldr	r2, [r7, #8]
10003820:	687b      	ldr	r3, [r7, #4]
10003822:	1c08      	adds	r0, r1, #0
10003824:	1c11      	adds	r1, r2, #0
10003826:	1c1a      	adds	r2, r3, #0
10003828:	f000 f806 	bl	10003838 <_ZNSt11__copy_moveILb0ELb1ESt26random_access_iterator_tagE8__copy_mIP5FloorEEPT_PKS5_S8_S6_>
1000382c:	1c03      	adds	r3, r0, #0
1000382e:	1c18      	adds	r0, r3, #0
10003830:	46bd      	mov	sp, r7
10003832:	b006      	add	sp, #24
10003834:	bd80      	pop	{r7, pc}
10003836:	46c0      	nop			; (mov r8, r8)

10003838 <_ZNSt11__copy_moveILb0ELb1ESt26random_access_iterator_tagE8__copy_mIP5FloorEEPT_PKS5_S8_S6_>:
10003838:	b580      	push	{r7, lr}
1000383a:	b086      	sub	sp, #24
1000383c:	af00      	add	r7, sp, #0
1000383e:	60f8      	str	r0, [r7, #12]
10003840:	60b9      	str	r1, [r7, #8]
10003842:	607a      	str	r2, [r7, #4]
10003844:	68ba      	ldr	r2, [r7, #8]
10003846:	68fb      	ldr	r3, [r7, #12]
10003848:	1ad3      	subs	r3, r2, r3
1000384a:	109b      	asrs	r3, r3, #2
1000384c:	617b      	str	r3, [r7, #20]
1000384e:	697b      	ldr	r3, [r7, #20]
10003850:	2b00      	cmp	r3, #0
10003852:	d008      	beq.n	10003866 <_ZNSt11__copy_moveILb0ELb1ESt26random_access_iterator_tagE8__copy_mIP5FloorEEPT_PKS5_S8_S6_+0x2e>
10003854:	697b      	ldr	r3, [r7, #20]
10003856:	009b      	lsls	r3, r3, #2
10003858:	6879      	ldr	r1, [r7, #4]
1000385a:	68fa      	ldr	r2, [r7, #12]
1000385c:	1c08      	adds	r0, r1, #0
1000385e:	1c11      	adds	r1, r2, #0
10003860:	1c1a      	adds	r2, r3, #0
10003862:	f000 fe53 	bl	1000450c <memmove>
10003866:	697b      	ldr	r3, [r7, #20]
10003868:	009b      	lsls	r3, r3, #2
1000386a:	687a      	ldr	r2, [r7, #4]
1000386c:	18d3      	adds	r3, r2, r3
1000386e:	1c18      	adds	r0, r3, #0
10003870:	46bd      	mov	sp, r7
10003872:	b006      	add	sp, #24
10003874:	bd80      	pop	{r7, pc}
10003876:	46c0      	nop			; (mov r8, r8)

10003878 <_ZN5FloorC1EPVmm>:
10003878:	b580      	push	{r7, lr}
1000387a:	b084      	sub	sp, #16
1000387c:	af00      	add	r7, sp, #0
1000387e:	60f8      	str	r0, [r7, #12]
10003880:	60b9      	str	r1, [r7, #8]
10003882:	607a      	str	r2, [r7, #4]
10003884:	68f9      	ldr	r1, [r7, #12]
10003886:	68ba      	ldr	r2, [r7, #8]
10003888:	687b      	ldr	r3, [r7, #4]
1000388a:	1c08      	adds	r0, r1, #0
1000388c:	1c11      	adds	r1, r2, #0
1000388e:	1c1a      	adds	r2, r3, #0
10003890:	f7fd fc04 	bl	1000109c <_ZN7PinBaseC1EPVmm>
10003894:	68fb      	ldr	r3, [r7, #12]
10003896:	330c      	adds	r3, #12
10003898:	1c18      	adds	r0, r3, #0
1000389a:	f000 f963 	bl	10003b64 <_ZN7XObjectC1Ev>
1000389e:	68fb      	ldr	r3, [r7, #12]
100038a0:	4a04      	ldr	r2, [pc, #16]	; (100038b4 <_ZN5FloorC1EPVmm+0x3c>)
100038a2:	601a      	str	r2, [r3, #0]
100038a4:	68fb      	ldr	r3, [r7, #12]
100038a6:	4a04      	ldr	r2, [pc, #16]	; (100038b8 <_ZN5FloorC1EPVmm+0x40>)
100038a8:	60da      	str	r2, [r3, #12]
100038aa:	68fb      	ldr	r3, [r7, #12]
100038ac:	1c18      	adds	r0, r3, #0
100038ae:	46bd      	mov	sp, r7
100038b0:	b004      	add	sp, #16
100038b2:	bd80      	pop	{r7, pc}
100038b4:	10004818 	.word	0x10004818
100038b8:	10004828 	.word	0x10004828

100038bc <_ZN5FloorD1Ev>:
100038bc:	b580      	push	{r7, lr}
100038be:	b082      	sub	sp, #8
100038c0:	af00      	add	r7, sp, #0
100038c2:	6078      	str	r0, [r7, #4]
100038c4:	687b      	ldr	r3, [r7, #4]
100038c6:	4a0d      	ldr	r2, [pc, #52]	; (100038fc <_ZN5FloorD1Ev+0x40>)
100038c8:	601a      	str	r2, [r3, #0]
100038ca:	687b      	ldr	r3, [r7, #4]
100038cc:	4a0c      	ldr	r2, [pc, #48]	; (10003900 <_ZN5FloorD1Ev+0x44>)
100038ce:	60da      	str	r2, [r3, #12]
100038d0:	687b      	ldr	r3, [r7, #4]
100038d2:	330c      	adds	r3, #12
100038d4:	1c18      	adds	r0, r3, #0
100038d6:	f000 f953 	bl	10003b80 <_ZN7XObjectD1Ev>
100038da:	687b      	ldr	r3, [r7, #4]
100038dc:	1c18      	adds	r0, r3, #0
100038de:	f7fd fbf3 	bl	100010c8 <_ZN7PinBaseD1Ev>
100038e2:	2300      	movs	r3, #0
100038e4:	2b00      	cmp	r3, #0
100038e6:	d003      	beq.n	100038f0 <_ZN5FloorD1Ev+0x34>
100038e8:	687b      	ldr	r3, [r7, #4]
100038ea:	1c18      	adds	r0, r3, #0
100038ec:	f000 fc60 	bl	100041b0 <_ZdlPv>
100038f0:	687b      	ldr	r3, [r7, #4]
100038f2:	1c18      	adds	r0, r3, #0
100038f4:	46bd      	mov	sp, r7
100038f6:	b002      	add	sp, #8
100038f8:	bd80      	pop	{r7, pc}
100038fa:	46c0      	nop			; (mov r8, r8)
100038fc:	10004818 	.word	0x10004818
10003900:	10004828 	.word	0x10004828

10003904 <_ZThn12_N5FloorD1Ev>:
10003904:	b408      	push	{r3}
10003906:	4b02      	ldr	r3, [pc, #8]	; (10003910 <_ZThn12_N5FloorD1Ev+0xc>)
10003908:	469c      	mov	ip, r3
1000390a:	380c      	subs	r0, #12
1000390c:	bc08      	pop	{r3}
1000390e:	4760      	bx	ip
10003910:	100038bd 	.word	0x100038bd

10003914 <_ZN5FloorD0Ev>:
10003914:	b580      	push	{r7, lr}
10003916:	b082      	sub	sp, #8
10003918:	af00      	add	r7, sp, #0
1000391a:	6078      	str	r0, [r7, #4]
1000391c:	687b      	ldr	r3, [r7, #4]
1000391e:	1c18      	adds	r0, r3, #0
10003920:	f7ff ffcc 	bl	100038bc <_ZN5FloorD1Ev>
10003924:	687b      	ldr	r3, [r7, #4]
10003926:	1c18      	adds	r0, r3, #0
10003928:	f000 fc42 	bl	100041b0 <_ZdlPv>
1000392c:	687b      	ldr	r3, [r7, #4]
1000392e:	1c18      	adds	r0, r3, #0
10003930:	46bd      	mov	sp, r7
10003932:	b002      	add	sp, #8
10003934:	bd80      	pop	{r7, pc}
10003936:	46c0      	nop			; (mov r8, r8)

10003938 <_ZThn12_N5FloorD0Ev>:
10003938:	b408      	push	{r3}
1000393a:	4b02      	ldr	r3, [pc, #8]	; (10003944 <_ZThn12_N5FloorD0Ev+0xc>)
1000393c:	469c      	mov	ip, r3
1000393e:	380c      	subs	r0, #12
10003940:	bc08      	pop	{r3}
10003942:	4760      	bx	ip
10003944:	10003915 	.word	0x10003915

10003948 <_ZN5Floor16setRegisterArrayEP18ShiftRegisterArray>:
10003948:	b580      	push	{r7, lr}
1000394a:	b082      	sub	sp, #8
1000394c:	af00      	add	r7, sp, #0
1000394e:	6078      	str	r0, [r7, #4]
10003950:	6039      	str	r1, [r7, #0]
10003952:	687b      	ldr	r3, [r7, #4]
10003954:	683a      	ldr	r2, [r7, #0]
10003956:	611a      	str	r2, [r3, #16]
10003958:	46bd      	mov	sp, r7
1000395a:	b002      	add	sp, #8
1000395c:	bd80      	pop	{r7, pc}
1000395e:	46c0      	nop			; (mov r8, r8)

10003960 <_ZN5Floor2onEv>:
10003960:	b580      	push	{r7, lr}
10003962:	b082      	sub	sp, #8
10003964:	af00      	add	r7, sp, #0
10003966:	6078      	str	r0, [r7, #4]
10003968:	687b      	ldr	r3, [r7, #4]
1000396a:	1c18      	adds	r0, r3, #0
1000396c:	f7fd fbd4 	bl	10001118 <_ZN7PinBase4highEv>
10003970:	46bd      	mov	sp, r7
10003972:	b002      	add	sp, #8
10003974:	bd80      	pop	{r7, pc}
10003976:	46c0      	nop			; (mov r8, r8)

10003978 <_ZN5Floor3offEv>:
10003978:	b580      	push	{r7, lr}
1000397a:	b082      	sub	sp, #8
1000397c:	af00      	add	r7, sp, #0
1000397e:	6078      	str	r0, [r7, #4]
10003980:	687b      	ldr	r3, [r7, #4]
10003982:	1c18      	adds	r0, r3, #0
10003984:	f7fd fbdc 	bl	10001140 <_ZN7PinBase3lowEv>
10003988:	46bd      	mov	sp, r7
1000398a:	b002      	add	sp, #8
1000398c:	bd80      	pop	{r7, pc}
1000398e:	46c0      	nop			; (mov r8, r8)

10003990 <_ZN5Floor4pushEPh>:
10003990:	b580      	push	{r7, lr}
10003992:	b082      	sub	sp, #8
10003994:	af00      	add	r7, sp, #0
10003996:	6078      	str	r0, [r7, #4]
10003998:	6039      	str	r1, [r7, #0]
1000399a:	687b      	ldr	r3, [r7, #4]
1000399c:	691b      	ldr	r3, [r3, #16]
1000399e:	681b      	ldr	r3, [r3, #0]
100039a0:	3318      	adds	r3, #24
100039a2:	681a      	ldr	r2, [r3, #0]
100039a4:	687b      	ldr	r3, [r7, #4]
100039a6:	6919      	ldr	r1, [r3, #16]
100039a8:	683b      	ldr	r3, [r7, #0]
100039aa:	1c08      	adds	r0, r1, #0
100039ac:	1c19      	adds	r1, r3, #0
100039ae:	4790      	blx	r2
100039b0:	46bd      	mov	sp, r7
100039b2:	b002      	add	sp, #8
100039b4:	bd80      	pop	{r7, pc}
100039b6:	46c0      	nop			; (mov r8, r8)

100039b8 <_ZN5Floor5beginEv>:
100039b8:	b580      	push	{r7, lr}
100039ba:	b082      	sub	sp, #8
100039bc:	af00      	add	r7, sp, #0
100039be:	6078      	str	r0, [r7, #4]
100039c0:	687b      	ldr	r3, [r7, #4]
100039c2:	1c18      	adds	r0, r3, #0
100039c4:	f7ff ffd8 	bl	10003978 <_ZN5Floor3offEv>
100039c8:	687b      	ldr	r3, [r7, #4]
100039ca:	691b      	ldr	r3, [r3, #16]
100039cc:	1c18      	adds	r0, r3, #0
100039ce:	f7fd fdaf 	bl	10001530 <_ZN18ShiftRegisterArray5beginEv>
100039d2:	46bd      	mov	sp, r7
100039d4:	b002      	add	sp, #8
100039d6:	bd80      	pop	{r7, pc}

100039d8 <_ZN5Floor3endEv>:
100039d8:	b580      	push	{r7, lr}
100039da:	b082      	sub	sp, #8
100039dc:	af00      	add	r7, sp, #0
100039de:	6078      	str	r0, [r7, #4]
100039e0:	687b      	ldr	r3, [r7, #4]
100039e2:	691b      	ldr	r3, [r3, #16]
100039e4:	1c18      	adds	r0, r3, #0
100039e6:	f7fd fdaf 	bl	10001548 <_ZN18ShiftRegisterArray3endEv>
100039ea:	687b      	ldr	r3, [r7, #4]
100039ec:	1c18      	adds	r0, r3, #0
100039ee:	f7ff ffb7 	bl	10003960 <_ZN5Floor2onEv>
100039f2:	46bd      	mov	sp, r7
100039f4:	b002      	add	sp, #8
100039f6:	bd80      	pop	{r7, pc}

100039f8 <SystemInit>:
100039f8:	b580      	push	{r7, lr}
100039fa:	af00      	add	r7, sp, #0
100039fc:	f000 f804 	bl	10003a08 <SystemCoreSetup>
10003a00:	f000 f81c 	bl	10003a3c <SystemCoreClockSetup>
10003a04:	46bd      	mov	sp, r7
10003a06:	bd80      	pop	{r7, pc}

10003a08 <SystemCoreSetup>:
10003a08:	b580      	push	{r7, lr}
10003a0a:	af00      	add	r7, sp, #0
10003a0c:	490a      	ldr	r1, [pc, #40]	; (10003a38 <SystemCoreSetup+0x30>)
10003a0e:	4b0a      	ldr	r3, [pc, #40]	; (10003a38 <SystemCoreSetup+0x30>)
10003a10:	891b      	ldrh	r3, [r3, #8]
10003a12:	b29b      	uxth	r3, r3
10003a14:	2280      	movs	r2, #128	; 0x80
10003a16:	0152      	lsls	r2, r2, #5
10003a18:	4313      	orrs	r3, r2
10003a1a:	b29b      	uxth	r3, r3
10003a1c:	810b      	strh	r3, [r1, #8]
10003a1e:	4906      	ldr	r1, [pc, #24]	; (10003a38 <SystemCoreSetup+0x30>)
10003a20:	4a05      	ldr	r2, [pc, #20]	; (10003a38 <SystemCoreSetup+0x30>)
10003a22:	2348      	movs	r3, #72	; 0x48
10003a24:	5ad3      	ldrh	r3, [r2, r3]
10003a26:	b29b      	uxth	r3, r3
10003a28:	2280      	movs	r2, #128	; 0x80
10003a2a:	0112      	lsls	r2, r2, #4
10003a2c:	4313      	orrs	r3, r2
10003a2e:	b29a      	uxth	r2, r3
10003a30:	2348      	movs	r3, #72	; 0x48
10003a32:	52ca      	strh	r2, [r1, r3]
10003a34:	46bd      	mov	sp, r7
10003a36:	bd80      	pop	{r7, pc}
10003a38:	40050000 	.word	0x40050000

10003a3c <SystemCoreClockSetup>:
10003a3c:	b580      	push	{r7, lr}
10003a3e:	af00      	add	r7, sp, #0
10003a40:	4b09      	ldr	r3, [pc, #36]	; (10003a68 <SystemCoreClockSetup+0x2c>)
10003a42:	22c0      	movs	r2, #192	; 0xc0
10003a44:	625a      	str	r2, [r3, #36]	; 0x24
10003a46:	4b09      	ldr	r3, [pc, #36]	; (10003a6c <SystemCoreClockSetup+0x30>)
10003a48:	4a09      	ldr	r2, [pc, #36]	; (10003a70 <SystemCoreClockSetup+0x34>)
10003a4a:	601a      	str	r2, [r3, #0]
10003a4c:	46c0      	nop			; (mov r8, r8)
10003a4e:	4b07      	ldr	r3, [pc, #28]	; (10003a6c <SystemCoreClockSetup+0x30>)
10003a50:	681a      	ldr	r2, [r3, #0]
10003a52:	2380      	movs	r3, #128	; 0x80
10003a54:	05db      	lsls	r3, r3, #23
10003a56:	4013      	ands	r3, r2
10003a58:	d1f9      	bne.n	10003a4e <SystemCoreClockSetup+0x12>
10003a5a:	4b03      	ldr	r3, [pc, #12]	; (10003a68 <SystemCoreClockSetup+0x2c>)
10003a5c:	22c3      	movs	r2, #195	; 0xc3
10003a5e:	625a      	str	r2, [r3, #36]	; 0x24
10003a60:	f000 f808 	bl	10003a74 <SystemCoreClockUpdate>
10003a64:	46bd      	mov	sp, r7
10003a66:	bd80      	pop	{r7, pc}
10003a68:	40010000 	.word	0x40010000
10003a6c:	40010300 	.word	0x40010300
10003a70:	3ff10100 	.word	0x3ff10100

10003a74 <SystemCoreClockUpdate>:
10003a74:	b580      	push	{r7, lr}
10003a76:	af00      	add	r7, sp, #0
10003a78:	4b12      	ldr	r3, [pc, #72]	; (10003ac4 <SystemCoreClockUpdate+0x50>)
10003a7a:	681a      	ldr	r2, [r3, #0]
10003a7c:	23ff      	movs	r3, #255	; 0xff
10003a7e:	021b      	lsls	r3, r3, #8
10003a80:	4013      	ands	r3, r2
10003a82:	0a1a      	lsrs	r2, r3, #8
10003a84:	4b10      	ldr	r3, [pc, #64]	; (10003ac8 <SystemCoreClockUpdate+0x54>)
10003a86:	601a      	str	r2, [r3, #0]
10003a88:	4b0e      	ldr	r3, [pc, #56]	; (10003ac4 <SystemCoreClockUpdate+0x50>)
10003a8a:	681b      	ldr	r3, [r3, #0]
10003a8c:	22ff      	movs	r2, #255	; 0xff
10003a8e:	401a      	ands	r2, r3
10003a90:	4b0e      	ldr	r3, [pc, #56]	; (10003acc <SystemCoreClockUpdate+0x58>)
10003a92:	601a      	str	r2, [r3, #0]
10003a94:	4b0c      	ldr	r3, [pc, #48]	; (10003ac8 <SystemCoreClockUpdate+0x54>)
10003a96:	681b      	ldr	r3, [r3, #0]
10003a98:	2b00      	cmp	r3, #0
10003a9a:	d00e      	beq.n	10003aba <SystemCoreClockUpdate+0x46>
10003a9c:	4b0a      	ldr	r3, [pc, #40]	; (10003ac8 <SystemCoreClockUpdate+0x54>)
10003a9e:	681b      	ldr	r3, [r3, #0]
10003aa0:	021a      	lsls	r2, r3, #8
10003aa2:	4b0a      	ldr	r3, [pc, #40]	; (10003acc <SystemCoreClockUpdate+0x58>)
10003aa4:	681b      	ldr	r3, [r3, #0]
10003aa6:	18d3      	adds	r3, r2, r3
10003aa8:	4809      	ldr	r0, [pc, #36]	; (10003ad0 <SystemCoreClockUpdate+0x5c>)
10003aaa:	1c19      	adds	r1, r3, #0
10003aac:	f000 fc54 	bl	10004358 <__aeabi_uidiv>
10003ab0:	1c03      	adds	r3, r0, #0
10003ab2:	005a      	lsls	r2, r3, #1
10003ab4:	4b07      	ldr	r3, [pc, #28]	; (10003ad4 <SystemCoreClockUpdate+0x60>)
10003ab6:	601a      	str	r2, [r3, #0]
10003ab8:	e002      	b.n	10003ac0 <SystemCoreClockUpdate+0x4c>
10003aba:	4b06      	ldr	r3, [pc, #24]	; (10003ad4 <SystemCoreClockUpdate+0x60>)
10003abc:	4a06      	ldr	r2, [pc, #24]	; (10003ad8 <SystemCoreClockUpdate+0x64>)
10003abe:	601a      	str	r2, [r3, #0]
10003ac0:	46bd      	mov	sp, r7
10003ac2:	bd80      	pop	{r7, pc}
10003ac4:	40010300 	.word	0x40010300
10003ac8:	20000590 	.word	0x20000590
10003acc:	20000594 	.word	0x20000594
10003ad0:	f4240000 	.word	0xf4240000
10003ad4:	20003ffc 	.word	0x20003ffc
10003ad8:	01e84800 	.word	0x01e84800

10003adc <_sbrk>:
10003adc:	b580      	push	{r7, lr}
10003ade:	b084      	sub	sp, #16
10003ae0:	af00      	add	r7, sp, #0
10003ae2:	6078      	str	r0, [r7, #4]
10003ae4:	4b14      	ldr	r3, [pc, #80]	; (10003b38 <_sbrk+0x5c>)
10003ae6:	681b      	ldr	r3, [r3, #0]
10003ae8:	2b00      	cmp	r3, #0
10003aea:	d102      	bne.n	10003af2 <_sbrk+0x16>
10003aec:	4b12      	ldr	r3, [pc, #72]	; (10003b38 <_sbrk+0x5c>)
10003aee:	4a13      	ldr	r2, [pc, #76]	; (10003b3c <_sbrk+0x60>)
10003af0:	601a      	str	r2, [r3, #0]
10003af2:	4b11      	ldr	r3, [pc, #68]	; (10003b38 <_sbrk+0x5c>)
10003af4:	681b      	ldr	r3, [r3, #0]
10003af6:	60fb      	str	r3, [r7, #12]
10003af8:	687b      	ldr	r3, [r7, #4]
10003afa:	3303      	adds	r3, #3
10003afc:	2203      	movs	r2, #3
10003afe:	4393      	bics	r3, r2
10003b00:	607b      	str	r3, [r7, #4]
10003b02:	4b0d      	ldr	r3, [pc, #52]	; (10003b38 <_sbrk+0x5c>)
10003b04:	681a      	ldr	r2, [r3, #0]
10003b06:	687b      	ldr	r3, [r7, #4]
10003b08:	18d2      	adds	r2, r2, r3
10003b0a:	4b0d      	ldr	r3, [pc, #52]	; (10003b40 <_sbrk+0x64>)
10003b0c:	429a      	cmp	r2, r3
10003b0e:	d207      	bcs.n	10003b20 <_sbrk+0x44>
10003b10:	4b09      	ldr	r3, [pc, #36]	; (10003b38 <_sbrk+0x5c>)
10003b12:	681a      	ldr	r2, [r3, #0]
10003b14:	687b      	ldr	r3, [r7, #4]
10003b16:	18d2      	adds	r2, r2, r3
10003b18:	4b07      	ldr	r3, [pc, #28]	; (10003b38 <_sbrk+0x5c>)
10003b1a:	601a      	str	r2, [r3, #0]
10003b1c:	68fb      	ldr	r3, [r7, #12]
10003b1e:	e006      	b.n	10003b2e <_sbrk+0x52>
10003b20:	f000 fcb4 	bl	1000448c <__errno>
10003b24:	1c03      	adds	r3, r0, #0
10003b26:	220c      	movs	r2, #12
10003b28:	601a      	str	r2, [r3, #0]
10003b2a:	2301      	movs	r3, #1
10003b2c:	425b      	negs	r3, r3
10003b2e:	1c18      	adds	r0, r3, #0
10003b30:	46bd      	mov	sp, r7
10003b32:	b004      	add	sp, #16
10003b34:	bd80      	pop	{r7, pc}
10003b36:	46c0      	nop			; (mov r8, r8)
10003b38:	20000598 	.word	0x20000598
10003b3c:	20000610 	.word	0x20000610
10003b40:	20003ffc 	.word	0x20003ffc

10003b44 <_init>:
10003b44:	b580      	push	{r7, lr}
10003b46:	af00      	add	r7, sp, #0
10003b48:	46bd      	mov	sp, r7
10003b4a:	bd80      	pop	{r7, pc}

10003b4c <DAVE_Init>:
10003b4c:	b580      	push	{r7, lr}
10003b4e:	b082      	sub	sp, #8
10003b50:	af00      	add	r7, sp, #0
10003b52:	1dfb      	adds	r3, r7, #7
10003b54:	2200      	movs	r2, #0
10003b56:	701a      	strb	r2, [r3, #0]
10003b58:	1dfb      	adds	r3, r7, #7
10003b5a:	781b      	ldrb	r3, [r3, #0]
10003b5c:	1c18      	adds	r0, r3, #0
10003b5e:	46bd      	mov	sp, r7
10003b60:	b002      	add	sp, #8
10003b62:	bd80      	pop	{r7, pc}

10003b64 <_ZN7XObjectC1Ev>:
10003b64:	b580      	push	{r7, lr}
10003b66:	b082      	sub	sp, #8
10003b68:	af00      	add	r7, sp, #0
10003b6a:	6078      	str	r0, [r7, #4]
10003b6c:	687b      	ldr	r3, [r7, #4]
10003b6e:	4a03      	ldr	r2, [pc, #12]	; (10003b7c <_ZN7XObjectC1Ev+0x18>)
10003b70:	601a      	str	r2, [r3, #0]
10003b72:	687b      	ldr	r3, [r7, #4]
10003b74:	1c18      	adds	r0, r3, #0
10003b76:	46bd      	mov	sp, r7
10003b78:	b002      	add	sp, #8
10003b7a:	bd80      	pop	{r7, pc}
10003b7c:	10004838 	.word	0x10004838

10003b80 <_ZN7XObjectD1Ev>:
10003b80:	b580      	push	{r7, lr}
10003b82:	b082      	sub	sp, #8
10003b84:	af00      	add	r7, sp, #0
10003b86:	6078      	str	r0, [r7, #4]
10003b88:	687b      	ldr	r3, [r7, #4]
10003b8a:	4a07      	ldr	r2, [pc, #28]	; (10003ba8 <_ZN7XObjectD1Ev+0x28>)
10003b8c:	601a      	str	r2, [r3, #0]
10003b8e:	2300      	movs	r3, #0
10003b90:	2b00      	cmp	r3, #0
10003b92:	d003      	beq.n	10003b9c <_ZN7XObjectD1Ev+0x1c>
10003b94:	687b      	ldr	r3, [r7, #4]
10003b96:	1c18      	adds	r0, r3, #0
10003b98:	f000 fb0a 	bl	100041b0 <_ZdlPv>
10003b9c:	687b      	ldr	r3, [r7, #4]
10003b9e:	1c18      	adds	r0, r3, #0
10003ba0:	46bd      	mov	sp, r7
10003ba2:	b002      	add	sp, #8
10003ba4:	bd80      	pop	{r7, pc}
10003ba6:	46c0      	nop			; (mov r8, r8)
10003ba8:	10004838 	.word	0x10004838

10003bac <_ZN7XObjectD0Ev>:
10003bac:	b580      	push	{r7, lr}
10003bae:	b082      	sub	sp, #8
10003bb0:	af00      	add	r7, sp, #0
10003bb2:	6078      	str	r0, [r7, #4]
10003bb4:	687b      	ldr	r3, [r7, #4]
10003bb6:	1c18      	adds	r0, r3, #0
10003bb8:	f7ff ffe2 	bl	10003b80 <_ZN7XObjectD1Ev>
10003bbc:	687b      	ldr	r3, [r7, #4]
10003bbe:	1c18      	adds	r0, r3, #0
10003bc0:	f000 faf6 	bl	100041b0 <_ZdlPv>
10003bc4:	687b      	ldr	r3, [r7, #4]
10003bc6:	1c18      	adds	r0, r3, #0
10003bc8:	46bd      	mov	sp, r7
10003bca:	b002      	add	sp, #8
10003bcc:	bd80      	pop	{r7, pc}
10003bce:	46c0      	nop			; (mov r8, r8)

10003bd0 <_ZN7XObject5delayEj>:
10003bd0:	b580      	push	{r7, lr}
10003bd2:	b082      	sub	sp, #8
10003bd4:	af00      	add	r7, sp, #0
10003bd6:	6078      	str	r0, [r7, #4]
10003bd8:	6039      	str	r1, [r7, #0]
10003bda:	683b      	ldr	r3, [r7, #0]
10003bdc:	1e5a      	subs	r2, r3, #1
10003bde:	603a      	str	r2, [r7, #0]
10003be0:	1e5a      	subs	r2, r3, #1
10003be2:	4193      	sbcs	r3, r2
10003be4:	b2db      	uxtb	r3, r3
10003be6:	2b00      	cmp	r3, #0
10003be8:	d1f7      	bne.n	10003bda <_ZN7XObject5delayEj+0xa>
10003bea:	46bd      	mov	sp, r7
10003bec:	b002      	add	sp, #8
10003bee:	bd80      	pop	{r7, pc}

10003bf0 <NVIC_SetPriority>:
10003bf0:	b5b0      	push	{r4, r5, r7, lr}
10003bf2:	b082      	sub	sp, #8
10003bf4:	af00      	add	r7, sp, #0
10003bf6:	1c02      	adds	r2, r0, #0
10003bf8:	6039      	str	r1, [r7, #0]
10003bfa:	1dfb      	adds	r3, r7, #7
10003bfc:	701a      	strb	r2, [r3, #0]
10003bfe:	1dfb      	adds	r3, r7, #7
10003c00:	781b      	ldrb	r3, [r3, #0]
10003c02:	2b7f      	cmp	r3, #127	; 0x7f
10003c04:	d92f      	bls.n	10003c66 <NVIC_SetPriority+0x76>
10003c06:	4c2d      	ldr	r4, [pc, #180]	; (10003cbc <NVIC_SetPriority+0xcc>)
10003c08:	1dfb      	adds	r3, r7, #7
10003c0a:	781b      	ldrb	r3, [r3, #0]
10003c0c:	1c1a      	adds	r2, r3, #0
10003c0e:	230f      	movs	r3, #15
10003c10:	4013      	ands	r3, r2
10003c12:	3b08      	subs	r3, #8
10003c14:	0899      	lsrs	r1, r3, #2
10003c16:	4a29      	ldr	r2, [pc, #164]	; (10003cbc <NVIC_SetPriority+0xcc>)
10003c18:	1dfb      	adds	r3, r7, #7
10003c1a:	781b      	ldrb	r3, [r3, #0]
10003c1c:	1c18      	adds	r0, r3, #0
10003c1e:	230f      	movs	r3, #15
10003c20:	4003      	ands	r3, r0
10003c22:	3b08      	subs	r3, #8
10003c24:	089b      	lsrs	r3, r3, #2
10003c26:	3306      	adds	r3, #6
10003c28:	009b      	lsls	r3, r3, #2
10003c2a:	18d3      	adds	r3, r2, r3
10003c2c:	685b      	ldr	r3, [r3, #4]
10003c2e:	1dfa      	adds	r2, r7, #7
10003c30:	7812      	ldrb	r2, [r2, #0]
10003c32:	1c10      	adds	r0, r2, #0
10003c34:	2203      	movs	r2, #3
10003c36:	4002      	ands	r2, r0
10003c38:	00d2      	lsls	r2, r2, #3
10003c3a:	1c10      	adds	r0, r2, #0
10003c3c:	22ff      	movs	r2, #255	; 0xff
10003c3e:	4082      	lsls	r2, r0
10003c40:	43d2      	mvns	r2, r2
10003c42:	401a      	ands	r2, r3
10003c44:	683b      	ldr	r3, [r7, #0]
10003c46:	019b      	lsls	r3, r3, #6
10003c48:	20ff      	movs	r0, #255	; 0xff
10003c4a:	4003      	ands	r3, r0
10003c4c:	1df8      	adds	r0, r7, #7
10003c4e:	7800      	ldrb	r0, [r0, #0]
10003c50:	1c05      	adds	r5, r0, #0
10003c52:	2003      	movs	r0, #3
10003c54:	4028      	ands	r0, r5
10003c56:	00c0      	lsls	r0, r0, #3
10003c58:	4083      	lsls	r3, r0
10003c5a:	431a      	orrs	r2, r3
10003c5c:	1d8b      	adds	r3, r1, #6
10003c5e:	009b      	lsls	r3, r3, #2
10003c60:	18e3      	adds	r3, r4, r3
10003c62:	605a      	str	r2, [r3, #4]
10003c64:	e026      	b.n	10003cb4 <NVIC_SetPriority+0xc4>
10003c66:	4c16      	ldr	r4, [pc, #88]	; (10003cc0 <NVIC_SetPriority+0xd0>)
10003c68:	1dfb      	adds	r3, r7, #7
10003c6a:	781b      	ldrb	r3, [r3, #0]
10003c6c:	b25b      	sxtb	r3, r3
10003c6e:	089b      	lsrs	r3, r3, #2
10003c70:	4913      	ldr	r1, [pc, #76]	; (10003cc0 <NVIC_SetPriority+0xd0>)
10003c72:	1dfa      	adds	r2, r7, #7
10003c74:	7812      	ldrb	r2, [r2, #0]
10003c76:	b252      	sxtb	r2, r2
10003c78:	0892      	lsrs	r2, r2, #2
10003c7a:	32c0      	adds	r2, #192	; 0xc0
10003c7c:	0092      	lsls	r2, r2, #2
10003c7e:	5852      	ldr	r2, [r2, r1]
10003c80:	1df9      	adds	r1, r7, #7
10003c82:	7809      	ldrb	r1, [r1, #0]
10003c84:	1c08      	adds	r0, r1, #0
10003c86:	2103      	movs	r1, #3
10003c88:	4001      	ands	r1, r0
10003c8a:	00c9      	lsls	r1, r1, #3
10003c8c:	1c08      	adds	r0, r1, #0
10003c8e:	21ff      	movs	r1, #255	; 0xff
10003c90:	4081      	lsls	r1, r0
10003c92:	43c9      	mvns	r1, r1
10003c94:	4011      	ands	r1, r2
10003c96:	683a      	ldr	r2, [r7, #0]
10003c98:	0192      	lsls	r2, r2, #6
10003c9a:	20ff      	movs	r0, #255	; 0xff
10003c9c:	4002      	ands	r2, r0
10003c9e:	1df8      	adds	r0, r7, #7
10003ca0:	7800      	ldrb	r0, [r0, #0]
10003ca2:	1c05      	adds	r5, r0, #0
10003ca4:	2003      	movs	r0, #3
10003ca6:	4028      	ands	r0, r5
10003ca8:	00c0      	lsls	r0, r0, #3
10003caa:	4082      	lsls	r2, r0
10003cac:	430a      	orrs	r2, r1
10003cae:	33c0      	adds	r3, #192	; 0xc0
10003cb0:	009b      	lsls	r3, r3, #2
10003cb2:	511a      	str	r2, [r3, r4]
10003cb4:	46bd      	mov	sp, r7
10003cb6:	b002      	add	sp, #8
10003cb8:	bdb0      	pop	{r4, r5, r7, pc}
10003cba:	46c0      	nop			; (mov r8, r8)
10003cbc:	e000ed00 	.word	0xe000ed00
10003cc0:	e000e100 	.word	0xe000e100

10003cc4 <SysTick_Config>:
10003cc4:	b580      	push	{r7, lr}
10003cc6:	b082      	sub	sp, #8
10003cc8:	af00      	add	r7, sp, #0
10003cca:	6078      	str	r0, [r7, #4]
10003ccc:	687b      	ldr	r3, [r7, #4]
10003cce:	3b01      	subs	r3, #1
10003cd0:	4a0c      	ldr	r2, [pc, #48]	; (10003d04 <SysTick_Config+0x40>)
10003cd2:	4293      	cmp	r3, r2
10003cd4:	d901      	bls.n	10003cda <SysTick_Config+0x16>
10003cd6:	2301      	movs	r3, #1
10003cd8:	e010      	b.n	10003cfc <SysTick_Config+0x38>
10003cda:	4b0b      	ldr	r3, [pc, #44]	; (10003d08 <SysTick_Config+0x44>)
10003cdc:	687a      	ldr	r2, [r7, #4]
10003cde:	3a01      	subs	r2, #1
10003ce0:	605a      	str	r2, [r3, #4]
10003ce2:	2301      	movs	r3, #1
10003ce4:	425b      	negs	r3, r3
10003ce6:	1c18      	adds	r0, r3, #0
10003ce8:	2103      	movs	r1, #3
10003cea:	f7ff ff81 	bl	10003bf0 <NVIC_SetPriority>
10003cee:	4b06      	ldr	r3, [pc, #24]	; (10003d08 <SysTick_Config+0x44>)
10003cf0:	2200      	movs	r2, #0
10003cf2:	609a      	str	r2, [r3, #8]
10003cf4:	4b04      	ldr	r3, [pc, #16]	; (10003d08 <SysTick_Config+0x44>)
10003cf6:	2207      	movs	r2, #7
10003cf8:	601a      	str	r2, [r3, #0]
10003cfa:	2300      	movs	r3, #0
10003cfc:	1c18      	adds	r0, r3, #0
10003cfe:	46bd      	mov	sp, r7
10003d00:	b002      	add	sp, #8
10003d02:	bd80      	pop	{r7, pc}
10003d04:	00ffffff 	.word	0x00ffffff
10003d08:	e000e010 	.word	0xe000e010

10003d0c <_ZL19P2_7_enable_digitalv>:
10003d0c:	b580      	push	{r7, lr}
10003d0e:	af00      	add	r7, sp, #0
10003d10:	4b03      	ldr	r3, [pc, #12]	; (10003d20 <_ZL19P2_7_enable_digitalv+0x14>)
10003d12:	4a03      	ldr	r2, [pc, #12]	; (10003d20 <_ZL19P2_7_enable_digitalv+0x14>)
10003d14:	6e12      	ldr	r2, [r2, #96]	; 0x60
10003d16:	2180      	movs	r1, #128	; 0x80
10003d18:	438a      	bics	r2, r1
10003d1a:	661a      	str	r2, [r3, #96]	; 0x60
10003d1c:	46bd      	mov	sp, r7
10003d1e:	bd80      	pop	{r7, pc}
10003d20:	40040200 	.word	0x40040200

10003d24 <_ZL19P2_9_enable_digitalv>:
10003d24:	b580      	push	{r7, lr}
10003d26:	af00      	add	r7, sp, #0
10003d28:	4b03      	ldr	r3, [pc, #12]	; (10003d38 <_ZL19P2_9_enable_digitalv+0x14>)
10003d2a:	4a03      	ldr	r2, [pc, #12]	; (10003d38 <_ZL19P2_9_enable_digitalv+0x14>)
10003d2c:	6e12      	ldr	r2, [r2, #96]	; 0x60
10003d2e:	4903      	ldr	r1, [pc, #12]	; (10003d3c <_ZL19P2_9_enable_digitalv+0x18>)
10003d30:	400a      	ands	r2, r1
10003d32:	661a      	str	r2, [r3, #96]	; 0x60
10003d34:	46bd      	mov	sp, r7
10003d36:	bd80      	pop	{r7, pc}
10003d38:	40040200 	.word	0x40040200
10003d3c:	fffffdff 	.word	0xfffffdff

10003d40 <_ZL20P2_10_enable_digitalv>:
10003d40:	b580      	push	{r7, lr}
10003d42:	af00      	add	r7, sp, #0
10003d44:	4b03      	ldr	r3, [pc, #12]	; (10003d54 <_ZL20P2_10_enable_digitalv+0x14>)
10003d46:	4a03      	ldr	r2, [pc, #12]	; (10003d54 <_ZL20P2_10_enable_digitalv+0x14>)
10003d48:	6e12      	ldr	r2, [r2, #96]	; 0x60
10003d4a:	4903      	ldr	r1, [pc, #12]	; (10003d58 <_ZL20P2_10_enable_digitalv+0x18>)
10003d4c:	400a      	ands	r2, r1
10003d4e:	661a      	str	r2, [r3, #96]	; 0x60
10003d50:	46bd      	mov	sp, r7
10003d52:	bd80      	pop	{r7, pc}
10003d54:	40040200 	.word	0x40040200
10003d58:	fffffbff 	.word	0xfffffbff

10003d5c <_ZL20P2_11_enable_digitalv>:
10003d5c:	b580      	push	{r7, lr}
10003d5e:	af00      	add	r7, sp, #0
10003d60:	4b03      	ldr	r3, [pc, #12]	; (10003d70 <_ZL20P2_11_enable_digitalv+0x14>)
10003d62:	4a03      	ldr	r2, [pc, #12]	; (10003d70 <_ZL20P2_11_enable_digitalv+0x14>)
10003d64:	6e12      	ldr	r2, [r2, #96]	; 0x60
10003d66:	4903      	ldr	r1, [pc, #12]	; (10003d74 <_ZL20P2_11_enable_digitalv+0x18>)
10003d68:	400a      	ands	r2, r1
10003d6a:	661a      	str	r2, [r3, #96]	; 0x60
10003d6c:	46bd      	mov	sp, r7
10003d6e:	bd80      	pop	{r7, pc}
10003d70:	40040200 	.word	0x40040200
10003d74:	fffff7ff 	.word	0xfffff7ff

10003d78 <_Z5delayj>:
10003d78:	b580      	push	{r7, lr}
10003d7a:	b082      	sub	sp, #8
10003d7c:	af00      	add	r7, sp, #0
10003d7e:	6078      	str	r0, [r7, #4]
10003d80:	687b      	ldr	r3, [r7, #4]
10003d82:	1e5a      	subs	r2, r3, #1
10003d84:	607a      	str	r2, [r7, #4]
10003d86:	1e5a      	subs	r2, r3, #1
10003d88:	4193      	sbcs	r3, r2
10003d8a:	b2db      	uxtb	r3, r3
10003d8c:	2b00      	cmp	r3, #0
10003d8e:	d1f7      	bne.n	10003d80 <_Z5delayj+0x8>
10003d90:	46bd      	mov	sp, r7
10003d92:	b002      	add	sp, #8
10003d94:	bd80      	pop	{r7, pc}
10003d96:	46c0      	nop			; (mov r8, r8)

10003d98 <_Z15initApplicationv>:
10003d98:	b580      	push	{r7, lr}
10003d9a:	af00      	add	r7, sp, #0
10003d9c:	4b54      	ldr	r3, [pc, #336]	; (10003ef0 <_Z15initApplicationv+0x158>)
10003d9e:	22c0      	movs	r2, #192	; 0xc0
10003da0:	625a      	str	r2, [r3, #36]	; 0x24
10003da2:	4b54      	ldr	r3, [pc, #336]	; (10003ef4 <_Z15initApplicationv+0x15c>)
10003da4:	4a54      	ldr	r2, [pc, #336]	; (10003ef8 <_Z15initApplicationv+0x160>)
10003da6:	601a      	str	r2, [r3, #0]
10003da8:	46c0      	nop			; (mov r8, r8)
10003daa:	4b52      	ldr	r3, [pc, #328]	; (10003ef4 <_Z15initApplicationv+0x15c>)
10003dac:	681a      	ldr	r2, [r3, #0]
10003dae:	2380      	movs	r3, #128	; 0x80
10003db0:	05db      	lsls	r3, r3, #23
10003db2:	4013      	ands	r3, r2
10003db4:	1e5a      	subs	r2, r3, #1
10003db6:	4193      	sbcs	r3, r2
10003db8:	b2db      	uxtb	r3, r3
10003dba:	2b00      	cmp	r3, #0
10003dbc:	d1f5      	bne.n	10003daa <_Z15initApplicationv+0x12>
10003dbe:	4b4c      	ldr	r3, [pc, #304]	; (10003ef0 <_Z15initApplicationv+0x158>)
10003dc0:	22c3      	movs	r2, #195	; 0xc3
10003dc2:	625a      	str	r2, [r3, #36]	; 0x24
10003dc4:	f7ff fe56 	bl	10003a74 <SystemCoreClockUpdate>
10003dc8:	4b4c      	ldr	r3, [pc, #304]	; (10003efc <_Z15initApplicationv+0x164>)
10003dca:	4a4c      	ldr	r2, [pc, #304]	; (10003efc <_Z15initApplicationv+0x164>)
10003dcc:	6912      	ldr	r2, [r2, #16]
10003dce:	2180      	movs	r1, #128	; 0x80
10003dd0:	430a      	orrs	r2, r1
10003dd2:	611a      	str	r2, [r3, #16]
10003dd4:	4b49      	ldr	r3, [pc, #292]	; (10003efc <_Z15initApplicationv+0x164>)
10003dd6:	4a49      	ldr	r2, [pc, #292]	; (10003efc <_Z15initApplicationv+0x164>)
10003dd8:	6912      	ldr	r2, [r2, #16]
10003dda:	2180      	movs	r1, #128	; 0x80
10003ddc:	0209      	lsls	r1, r1, #8
10003dde:	430a      	orrs	r2, r1
10003de0:	611a      	str	r2, [r3, #16]
10003de2:	4b47      	ldr	r3, [pc, #284]	; (10003f00 <_Z15initApplicationv+0x168>)
10003de4:	4a46      	ldr	r2, [pc, #280]	; (10003f00 <_Z15initApplicationv+0x168>)
10003de6:	6992      	ldr	r2, [r2, #24]
10003de8:	2180      	movs	r1, #128	; 0x80
10003dea:	0409      	lsls	r1, r1, #16
10003dec:	430a      	orrs	r2, r1
10003dee:	619a      	str	r2, [r3, #24]
10003df0:	4b43      	ldr	r3, [pc, #268]	; (10003f00 <_Z15initApplicationv+0x168>)
10003df2:	4a43      	ldr	r2, [pc, #268]	; (10003f00 <_Z15initApplicationv+0x168>)
10003df4:	6992      	ldr	r2, [r2, #24]
10003df6:	2180      	movs	r1, #128	; 0x80
10003df8:	0609      	lsls	r1, r1, #24
10003dfa:	430a      	orrs	r2, r1
10003dfc:	619a      	str	r2, [r3, #24]
10003dfe:	4b41      	ldr	r3, [pc, #260]	; (10003f04 <_Z15initApplicationv+0x16c>)
10003e00:	4a40      	ldr	r2, [pc, #256]	; (10003f04 <_Z15initApplicationv+0x16c>)
10003e02:	6952      	ldr	r2, [r2, #20]
10003e04:	2180      	movs	r1, #128	; 0x80
10003e06:	0409      	lsls	r1, r1, #16
10003e08:	430a      	orrs	r2, r1
10003e0a:	615a      	str	r2, [r3, #20]
10003e0c:	4b3d      	ldr	r3, [pc, #244]	; (10003f04 <_Z15initApplicationv+0x16c>)
10003e0e:	4a3d      	ldr	r2, [pc, #244]	; (10003f04 <_Z15initApplicationv+0x16c>)
10003e10:	6952      	ldr	r2, [r2, #20]
10003e12:	2180      	movs	r1, #128	; 0x80
10003e14:	0609      	lsls	r1, r1, #24
10003e16:	430a      	orrs	r2, r1
10003e18:	615a      	str	r2, [r3, #20]
10003e1a:	4b3a      	ldr	r3, [pc, #232]	; (10003f04 <_Z15initApplicationv+0x16c>)
10003e1c:	4a39      	ldr	r2, [pc, #228]	; (10003f04 <_Z15initApplicationv+0x16c>)
10003e1e:	6912      	ldr	r2, [r2, #16]
10003e20:	2180      	movs	r1, #128	; 0x80
10003e22:	430a      	orrs	r2, r1
10003e24:	611a      	str	r2, [r3, #16]
10003e26:	4b37      	ldr	r3, [pc, #220]	; (10003f04 <_Z15initApplicationv+0x16c>)
10003e28:	4a36      	ldr	r2, [pc, #216]	; (10003f04 <_Z15initApplicationv+0x16c>)
10003e2a:	6952      	ldr	r2, [r2, #20]
10003e2c:	2180      	movs	r1, #128	; 0x80
10003e2e:	0209      	lsls	r1, r1, #8
10003e30:	430a      	orrs	r2, r1
10003e32:	615a      	str	r2, [r3, #20]
10003e34:	4b33      	ldr	r3, [pc, #204]	; (10003f04 <_Z15initApplicationv+0x16c>)
10003e36:	4a33      	ldr	r2, [pc, #204]	; (10003f04 <_Z15initApplicationv+0x16c>)
10003e38:	6992      	ldr	r2, [r2, #24]
10003e3a:	2180      	movs	r1, #128	; 0x80
10003e3c:	0209      	lsls	r1, r1, #8
10003e3e:	430a      	orrs	r2, r1
10003e40:	619a      	str	r2, [r3, #24]
10003e42:	4b30      	ldr	r3, [pc, #192]	; (10003f04 <_Z15initApplicationv+0x16c>)
10003e44:	4a2f      	ldr	r2, [pc, #188]	; (10003f04 <_Z15initApplicationv+0x16c>)
10003e46:	69d2      	ldr	r2, [r2, #28]
10003e48:	2180      	movs	r1, #128	; 0x80
10003e4a:	0409      	lsls	r1, r1, #16
10003e4c:	430a      	orrs	r2, r1
10003e4e:	61da      	str	r2, [r3, #28]
10003e50:	4b2d      	ldr	r3, [pc, #180]	; (10003f08 <_Z15initApplicationv+0x170>)
10003e52:	681b      	ldr	r3, [r3, #0]
10003e54:	1c18      	adds	r0, r3, #0
10003e56:	2164      	movs	r1, #100	; 0x64
10003e58:	f000 fa7e 	bl	10004358 <__aeabi_uidiv>
10003e5c:	1c03      	adds	r3, r0, #0
10003e5e:	1c18      	adds	r0, r3, #0
10003e60:	f7ff ff30 	bl	10003cc4 <SysTick_Config>
10003e64:	f7ff ff52 	bl	10003d0c <_ZL19P2_7_enable_digitalv>
10003e68:	f7ff ff5c 	bl	10003d24 <_ZL19P2_9_enable_digitalv>
10003e6c:	f7ff ff68 	bl	10003d40 <_ZL20P2_10_enable_digitalv>
10003e70:	f7ff ff74 	bl	10003d5c <_ZL20P2_11_enable_digitalv>
10003e74:	4b23      	ldr	r3, [pc, #140]	; (10003f04 <_Z15initApplicationv+0x16c>)
10003e76:	4a23      	ldr	r2, [pc, #140]	; (10003f04 <_Z15initApplicationv+0x16c>)
10003e78:	6812      	ldr	r2, [r2, #0]
10003e7a:	2101      	movs	r1, #1
10003e7c:	438a      	bics	r2, r1
10003e7e:	601a      	str	r2, [r3, #0]
10003e80:	4b20      	ldr	r3, [pc, #128]	; (10003f04 <_Z15initApplicationv+0x16c>)
10003e82:	4a20      	ldr	r2, [pc, #128]	; (10003f04 <_Z15initApplicationv+0x16c>)
10003e84:	6812      	ldr	r2, [r2, #0]
10003e86:	2120      	movs	r1, #32
10003e88:	438a      	bics	r2, r1
10003e8a:	601a      	str	r2, [r3, #0]
10003e8c:	4b1d      	ldr	r3, [pc, #116]	; (10003f04 <_Z15initApplicationv+0x16c>)
10003e8e:	4a1d      	ldr	r2, [pc, #116]	; (10003f04 <_Z15initApplicationv+0x16c>)
10003e90:	6812      	ldr	r2, [r2, #0]
10003e92:	491e      	ldr	r1, [pc, #120]	; (10003f0c <_Z15initApplicationv+0x174>)
10003e94:	400a      	ands	r2, r1
10003e96:	601a      	str	r2, [r3, #0]
10003e98:	4b1a      	ldr	r3, [pc, #104]	; (10003f04 <_Z15initApplicationv+0x16c>)
10003e9a:	4a1a      	ldr	r2, [pc, #104]	; (10003f04 <_Z15initApplicationv+0x16c>)
10003e9c:	6812      	ldr	r2, [r2, #0]
10003e9e:	491c      	ldr	r1, [pc, #112]	; (10003f10 <_Z15initApplicationv+0x178>)
10003ea0:	400a      	ands	r2, r1
10003ea2:	601a      	str	r2, [r3, #0]
10003ea4:	4b16      	ldr	r3, [pc, #88]	; (10003f00 <_Z15initApplicationv+0x168>)
10003ea6:	4a16      	ldr	r2, [pc, #88]	; (10003f00 <_Z15initApplicationv+0x168>)
10003ea8:	6812      	ldr	r2, [r2, #0]
10003eaa:	491a      	ldr	r1, [pc, #104]	; (10003f14 <_Z15initApplicationv+0x17c>)
10003eac:	400a      	ands	r2, r1
10003eae:	601a      	str	r2, [r3, #0]
10003eb0:	4b13      	ldr	r3, [pc, #76]	; (10003f00 <_Z15initApplicationv+0x168>)
10003eb2:	4a13      	ldr	r2, [pc, #76]	; (10003f00 <_Z15initApplicationv+0x168>)
10003eb4:	6812      	ldr	r2, [r2, #0]
10003eb6:	4918      	ldr	r1, [pc, #96]	; (10003f18 <_Z15initApplicationv+0x180>)
10003eb8:	400a      	ands	r2, r1
10003eba:	601a      	str	r2, [r3, #0]
10003ebc:	4b11      	ldr	r3, [pc, #68]	; (10003f04 <_Z15initApplicationv+0x16c>)
10003ebe:	4a11      	ldr	r2, [pc, #68]	; (10003f04 <_Z15initApplicationv+0x16c>)
10003ec0:	6812      	ldr	r2, [r2, #0]
10003ec2:	2140      	movs	r1, #64	; 0x40
10003ec4:	438a      	bics	r2, r1
10003ec6:	601a      	str	r2, [r3, #0]
10003ec8:	4b0e      	ldr	r3, [pc, #56]	; (10003f04 <_Z15initApplicationv+0x16c>)
10003eca:	4a0e      	ldr	r2, [pc, #56]	; (10003f04 <_Z15initApplicationv+0x16c>)
10003ecc:	6812      	ldr	r2, [r2, #0]
10003ece:	2180      	movs	r1, #128	; 0x80
10003ed0:	438a      	bics	r2, r1
10003ed2:	601a      	str	r2, [r3, #0]
10003ed4:	4b11      	ldr	r3, [pc, #68]	; (10003f1c <_Z15initApplicationv+0x184>)
10003ed6:	1c18      	adds	r0, r3, #0
10003ed8:	f7ff ff4e 	bl	10003d78 <_Z5delayj>
10003edc:	4b09      	ldr	r3, [pc, #36]	; (10003f04 <_Z15initApplicationv+0x16c>)
10003ede:	4a09      	ldr	r2, [pc, #36]	; (10003f04 <_Z15initApplicationv+0x16c>)
10003ee0:	6812      	ldr	r2, [r2, #0]
10003ee2:	2180      	movs	r1, #128	; 0x80
10003ee4:	01c9      	lsls	r1, r1, #7
10003ee6:	430a      	orrs	r2, r1
10003ee8:	601a      	str	r2, [r3, #0]
10003eea:	46bd      	mov	sp, r7
10003eec:	bd80      	pop	{r7, pc}
10003eee:	46c0      	nop			; (mov r8, r8)
10003ef0:	40010000 	.word	0x40010000
10003ef4:	40010300 	.word	0x40010300
10003ef8:	3ff00400 	.word	0x3ff00400
10003efc:	40040100 	.word	0x40040100
10003f00:	40040200 	.word	0x40040200
10003f04:	40040000 	.word	0x40040000
10003f08:	20003ffc 	.word	0x20003ffc
10003f0c:	fffffdff 	.word	0xfffffdff
10003f10:	ffffbfff 	.word	0xffffbfff
10003f14:	fffffbff 	.word	0xfffffbff
10003f18:	fffff7ff 	.word	0xfffff7ff
10003f1c:	0000c350 	.word	0x0000c350

10003f20 <main>:
10003f20:	b590      	push	{r4, r7, lr}
10003f22:	b0b5      	sub	sp, #212	; 0xd4
10003f24:	af00      	add	r7, sp, #0
10003f26:	23cf      	movs	r3, #207	; 0xcf
10003f28:	18fc      	adds	r4, r7, r3
10003f2a:	f7ff fe0f 	bl	10003b4c <DAVE_Init>
10003f2e:	1c03      	adds	r3, r0, #0
10003f30:	7023      	strb	r3, [r4, #0]
10003f32:	23cf      	movs	r3, #207	; 0xcf
10003f34:	18fb      	adds	r3, r7, r3
10003f36:	781b      	ldrb	r3, [r3, #0]
10003f38:	2b00      	cmp	r3, #0
10003f3a:	d000      	beq.n	10003f3e <main+0x1e>
10003f3c:	e7fe      	b.n	10003f3c <main+0x1c>
10003f3e:	f7ff ff2b 	bl	10003d98 <_Z15initApplicationv>
10003f42:	23c4      	movs	r3, #196	; 0xc4
10003f44:	18fb      	adds	r3, r7, r3
10003f46:	4a76      	ldr	r2, [pc, #472]	; (10004120 <main+0x200>)
10003f48:	601a      	str	r2, [r3, #0]
10003f4a:	23c4      	movs	r3, #196	; 0xc4
10003f4c:	18fb      	adds	r3, r7, r3
10003f4e:	2209      	movs	r2, #9
10003f50:	605a      	str	r2, [r3, #4]
10003f52:	23bc      	movs	r3, #188	; 0xbc
10003f54:	18fb      	adds	r3, r7, r3
10003f56:	4a72      	ldr	r2, [pc, #456]	; (10004120 <main+0x200>)
10003f58:	601a      	str	r2, [r3, #0]
10003f5a:	23bc      	movs	r3, #188	; 0xbc
10003f5c:	18fb      	adds	r3, r7, r3
10003f5e:	2200      	movs	r2, #0
10003f60:	605a      	str	r2, [r3, #4]
10003f62:	23b4      	movs	r3, #180	; 0xb4
10003f64:	18fb      	adds	r3, r7, r3
10003f66:	4a6e      	ldr	r2, [pc, #440]	; (10004120 <main+0x200>)
10003f68:	601a      	str	r2, [r3, #0]
10003f6a:	23b4      	movs	r3, #180	; 0xb4
10003f6c:	18fb      	adds	r3, r7, r3
10003f6e:	2205      	movs	r2, #5
10003f70:	605a      	str	r2, [r3, #4]
10003f72:	23a8      	movs	r3, #168	; 0xa8
10003f74:	18f9      	adds	r1, r7, r3
10003f76:	23c4      	movs	r3, #196	; 0xc4
10003f78:	18fa      	adds	r2, r7, r3
10003f7a:	23bc      	movs	r3, #188	; 0xbc
10003f7c:	18fb      	adds	r3, r7, r3
10003f7e:	1c08      	adds	r0, r1, #0
10003f80:	1c11      	adds	r1, r2, #0
10003f82:	1c1a      	adds	r2, r3, #0
10003f84:	f7fd f902 	bl	1000118c <_ZN13ShiftRegisterC1EP13__AccessPointS1_>
10003f88:	239c      	movs	r3, #156	; 0x9c
10003f8a:	18f9      	adds	r1, r7, r3
10003f8c:	23c4      	movs	r3, #196	; 0xc4
10003f8e:	18fa      	adds	r2, r7, r3
10003f90:	23b4      	movs	r3, #180	; 0xb4
10003f92:	18fb      	adds	r3, r7, r3
10003f94:	1c08      	adds	r0, r1, #0
10003f96:	1c11      	adds	r1, r2, #0
10003f98:	1c1a      	adds	r2, r3, #0
10003f9a:	f7fd f8f7 	bl	1000118c <_ZN13ShiftRegisterC1EP13__AccessPointS1_>
10003f9e:	2384      	movs	r3, #132	; 0x84
10003fa0:	18fa      	adds	r2, r7, r3
10003fa2:	23c4      	movs	r3, #196	; 0xc4
10003fa4:	18fb      	adds	r3, r7, r3
10003fa6:	1c10      	adds	r0, r2, #0
10003fa8:	1c19      	adds	r1, r3, #0
10003faa:	f7fd fa1f 	bl	100013ec <_ZN18ShiftRegisterArrayC1EP13__AccessPoint>
10003fae:	2384      	movs	r3, #132	; 0x84
10003fb0:	18fa      	adds	r2, r7, r3
10003fb2:	23a8      	movs	r3, #168	; 0xa8
10003fb4:	18fb      	adds	r3, r7, r3
10003fb6:	1c10      	adds	r0, r2, #0
10003fb8:	1c19      	adds	r1, r3, #0
10003fba:	f7fd faa9 	bl	10001510 <_ZN18ShiftRegisterArray16addShiftRegisterEP13ShiftRegister>
10003fbe:	2384      	movs	r3, #132	; 0x84
10003fc0:	18fa      	adds	r2, r7, r3
10003fc2:	239c      	movs	r3, #156	; 0x9c
10003fc4:	18fb      	adds	r3, r7, r3
10003fc6:	1c10      	adds	r0, r2, #0
10003fc8:	1c19      	adds	r1, r3, #0
10003fca:	f7fd faa1 	bl	10001510 <_ZN18ShiftRegisterArray16addShiftRegisterEP13ShiftRegister>
10003fce:	2370      	movs	r3, #112	; 0x70
10003fd0:	18fb      	adds	r3, r7, r3
10003fd2:	4a54      	ldr	r2, [pc, #336]	; (10004124 <main+0x204>)
10003fd4:	1c18      	adds	r0, r3, #0
10003fd6:	1c11      	adds	r1, r2, #0
10003fd8:	220a      	movs	r2, #10
10003fda:	f7ff fc4d 	bl	10003878 <_ZN5FloorC1EPVmm>
10003fde:	2370      	movs	r3, #112	; 0x70
10003fe0:	18fa      	adds	r2, r7, r3
10003fe2:	2384      	movs	r3, #132	; 0x84
10003fe4:	18fb      	adds	r3, r7, r3
10003fe6:	1c10      	adds	r0, r2, #0
10003fe8:	1c19      	adds	r1, r3, #0
10003fea:	f7ff fcad 	bl	10003948 <_ZN5Floor16setRegisterArrayEP18ShiftRegisterArray>
10003fee:	235c      	movs	r3, #92	; 0x5c
10003ff0:	18fb      	adds	r3, r7, r3
10003ff2:	4a4c      	ldr	r2, [pc, #304]	; (10004124 <main+0x204>)
10003ff4:	1c18      	adds	r0, r3, #0
10003ff6:	1c11      	adds	r1, r2, #0
10003ff8:	220b      	movs	r2, #11
10003ffa:	f7ff fc3d 	bl	10003878 <_ZN5FloorC1EPVmm>
10003ffe:	235c      	movs	r3, #92	; 0x5c
10004000:	18fa      	adds	r2, r7, r3
10004002:	2384      	movs	r3, #132	; 0x84
10004004:	18fb      	adds	r3, r7, r3
10004006:	1c10      	adds	r0, r2, #0
10004008:	1c19      	adds	r1, r3, #0
1000400a:	f7ff fc9d 	bl	10003948 <_ZN5Floor16setRegisterArrayEP18ShiftRegisterArray>
1000400e:	2348      	movs	r3, #72	; 0x48
10004010:	18fb      	adds	r3, r7, r3
10004012:	4a43      	ldr	r2, [pc, #268]	; (10004120 <main+0x200>)
10004014:	1c18      	adds	r0, r3, #0
10004016:	1c11      	adds	r1, r2, #0
10004018:	2206      	movs	r2, #6
1000401a:	f7ff fc2d 	bl	10003878 <_ZN5FloorC1EPVmm>
1000401e:	2348      	movs	r3, #72	; 0x48
10004020:	18fa      	adds	r2, r7, r3
10004022:	2384      	movs	r3, #132	; 0x84
10004024:	18fb      	adds	r3, r7, r3
10004026:	1c10      	adds	r0, r2, #0
10004028:	1c19      	adds	r1, r3, #0
1000402a:	f7ff fc8d 	bl	10003948 <_ZN5Floor16setRegisterArrayEP18ShiftRegisterArray>
1000402e:	2334      	movs	r3, #52	; 0x34
10004030:	18fb      	adds	r3, r7, r3
10004032:	4a3b      	ldr	r2, [pc, #236]	; (10004120 <main+0x200>)
10004034:	1c18      	adds	r0, r3, #0
10004036:	1c11      	adds	r1, r2, #0
10004038:	2207      	movs	r2, #7
1000403a:	f7ff fc1d 	bl	10003878 <_ZN5FloorC1EPVmm>
1000403e:	2334      	movs	r3, #52	; 0x34
10004040:	18fa      	adds	r2, r7, r3
10004042:	2384      	movs	r3, #132	; 0x84
10004044:	18fb      	adds	r3, r7, r3
10004046:	1c10      	adds	r0, r2, #0
10004048:	1c19      	adds	r1, r3, #0
1000404a:	f7ff fc7d 	bl	10003948 <_ZN5Floor16setRegisterArrayEP18ShiftRegisterArray>
1000404e:	2324      	movs	r3, #36	; 0x24
10004050:	18fb      	adds	r3, r7, r3
10004052:	1c18      	adds	r0, r3, #0
10004054:	f7fe fdcc 	bl	10002bf0 <_ZN4CubeC1Ev>
10004058:	2324      	movs	r3, #36	; 0x24
1000405a:	18fa      	adds	r2, r7, r3
1000405c:	2370      	movs	r3, #112	; 0x70
1000405e:	18fb      	adds	r3, r7, r3
10004060:	1c10      	adds	r0, r2, #0
10004062:	1c19      	adds	r1, r3, #0
10004064:	f7fe fe0c 	bl	10002c80 <_ZN4Cube8addFloorEP5Floor>
10004068:	2324      	movs	r3, #36	; 0x24
1000406a:	18fa      	adds	r2, r7, r3
1000406c:	235c      	movs	r3, #92	; 0x5c
1000406e:	18fb      	adds	r3, r7, r3
10004070:	1c10      	adds	r0, r2, #0
10004072:	1c19      	adds	r1, r3, #0
10004074:	f7fe fe04 	bl	10002c80 <_ZN4Cube8addFloorEP5Floor>
10004078:	2324      	movs	r3, #36	; 0x24
1000407a:	18fa      	adds	r2, r7, r3
1000407c:	2348      	movs	r3, #72	; 0x48
1000407e:	18fb      	adds	r3, r7, r3
10004080:	1c10      	adds	r0, r2, #0
10004082:	1c19      	adds	r1, r3, #0
10004084:	f7fe fdfc 	bl	10002c80 <_ZN4Cube8addFloorEP5Floor>
10004088:	2324      	movs	r3, #36	; 0x24
1000408a:	18fa      	adds	r2, r7, r3
1000408c:	2334      	movs	r3, #52	; 0x34
1000408e:	18fb      	adds	r3, r7, r3
10004090:	1c10      	adds	r0, r2, #0
10004092:	1c19      	adds	r1, r3, #0
10004094:	f7fe fdf4 	bl	10002c80 <_ZN4Cube8addFloorEP5Floor>
10004098:	1d3b      	adds	r3, r7, #4
1000409a:	1c18      	adds	r0, r3, #0
1000409c:	f7fe fc00 	bl	100028a0 <_ZN5FrameC1Ev>
100040a0:	1d3a      	adds	r2, r7, #4
100040a2:	4b21      	ldr	r3, [pc, #132]	; (10004128 <main+0x208>)
100040a4:	1c10      	adds	r0, r2, #0
100040a6:	1c19      	adds	r1, r3, #0
100040a8:	2204      	movs	r2, #4
100040aa:	f7fe fc51 	bl	10002950 <_ZN5Frame4initEPhi>
100040ae:	2324      	movs	r3, #36	; 0x24
100040b0:	18fa      	adds	r2, r7, r3
100040b2:	1d3b      	adds	r3, r7, #4
100040b4:	1c10      	adds	r0, r2, #0
100040b6:	1c19      	adds	r1, r3, #0
100040b8:	f7fe fea4 	bl	10002e04 <_ZN4Cube4playEP5Frame>
100040bc:	1d3b      	adds	r3, r7, #4
100040be:	1c18      	adds	r0, r3, #0
100040c0:	f7fe fc06 	bl	100028d0 <_ZN5FrameD1Ev>
100040c4:	2324      	movs	r3, #36	; 0x24
100040c6:	18fb      	adds	r3, r7, r3
100040c8:	1c18      	adds	r0, r3, #0
100040ca:	f7fe fda9 	bl	10002c20 <_ZN4CubeD1Ev>
100040ce:	2334      	movs	r3, #52	; 0x34
100040d0:	18fb      	adds	r3, r7, r3
100040d2:	1c18      	adds	r0, r3, #0
100040d4:	f7ff fbf2 	bl	100038bc <_ZN5FloorD1Ev>
100040d8:	2348      	movs	r3, #72	; 0x48
100040da:	18fb      	adds	r3, r7, r3
100040dc:	1c18      	adds	r0, r3, #0
100040de:	f7ff fbed 	bl	100038bc <_ZN5FloorD1Ev>
100040e2:	235c      	movs	r3, #92	; 0x5c
100040e4:	18fb      	adds	r3, r7, r3
100040e6:	1c18      	adds	r0, r3, #0
100040e8:	f7ff fbe8 	bl	100038bc <_ZN5FloorD1Ev>
100040ec:	2370      	movs	r3, #112	; 0x70
100040ee:	18fb      	adds	r3, r7, r3
100040f0:	1c18      	adds	r0, r3, #0
100040f2:	f7ff fbe3 	bl	100038bc <_ZN5FloorD1Ev>
100040f6:	2384      	movs	r3, #132	; 0x84
100040f8:	18fb      	adds	r3, r7, r3
100040fa:	1c18      	adds	r0, r3, #0
100040fc:	f7fd f990 	bl	10001420 <_ZN18ShiftRegisterArrayD1Ev>
10004100:	239c      	movs	r3, #156	; 0x9c
10004102:	18fb      	adds	r3, r7, r3
10004104:	1c18      	adds	r0, r3, #0
10004106:	f7fd f857 	bl	100011b8 <_ZN13ShiftRegisterD1Ev>
1000410a:	23a8      	movs	r3, #168	; 0xa8
1000410c:	18fb      	adds	r3, r7, r3
1000410e:	1c18      	adds	r0, r3, #0
10004110:	f7fd f852 	bl	100011b8 <_ZN13ShiftRegisterD1Ev>
10004114:	2300      	movs	r3, #0
10004116:	1c18      	adds	r0, r3, #0
10004118:	46bd      	mov	sp, r7
1000411a:	b035      	add	sp, #212	; 0xd4
1000411c:	bd90      	pop	{r4, r7, pc}
1000411e:	46c0      	nop			; (mov r8, r8)
10004120:	40040000 	.word	0x40040000
10004124:	40040200 	.word	0x40040200
10004128:	20000520 	.word	0x20000520

1000412c <SysTick_Handler>:
1000412c:	b580      	push	{r7, lr}
1000412e:	af00      	add	r7, sp, #0
10004130:	4b14      	ldr	r3, [pc, #80]	; (10004184 <SysTick_Handler+0x58>)
10004132:	681b      	ldr	r3, [r3, #0]
10004134:	1c5a      	adds	r2, r3, #1
10004136:	4b13      	ldr	r3, [pc, #76]	; (10004184 <SysTick_Handler+0x58>)
10004138:	601a      	str	r2, [r3, #0]
1000413a:	4b12      	ldr	r3, [pc, #72]	; (10004184 <SysTick_Handler+0x58>)
1000413c:	681b      	ldr	r3, [r3, #0]
1000413e:	2b32      	cmp	r3, #50	; 0x32
10004140:	d10b      	bne.n	1000415a <SysTick_Handler+0x2e>
10004142:	4b11      	ldr	r3, [pc, #68]	; (10004188 <SysTick_Handler+0x5c>)
10004144:	4a10      	ldr	r2, [pc, #64]	; (10004188 <SysTick_Handler+0x5c>)
10004146:	6812      	ldr	r2, [r2, #0]
10004148:	2101      	movs	r1, #1
1000414a:	430a      	orrs	r2, r1
1000414c:	601a      	str	r2, [r3, #0]
1000414e:	4b0e      	ldr	r3, [pc, #56]	; (10004188 <SysTick_Handler+0x5c>)
10004150:	4a0d      	ldr	r2, [pc, #52]	; (10004188 <SysTick_Handler+0x5c>)
10004152:	6812      	ldr	r2, [r2, #0]
10004154:	2102      	movs	r1, #2
10004156:	438a      	bics	r2, r1
10004158:	601a      	str	r2, [r3, #0]
1000415a:	4b0a      	ldr	r3, [pc, #40]	; (10004184 <SysTick_Handler+0x58>)
1000415c:	681b      	ldr	r3, [r3, #0]
1000415e:	2b64      	cmp	r3, #100	; 0x64
10004160:	dd0e      	ble.n	10004180 <SysTick_Handler+0x54>
10004162:	4b09      	ldr	r3, [pc, #36]	; (10004188 <SysTick_Handler+0x5c>)
10004164:	4a08      	ldr	r2, [pc, #32]	; (10004188 <SysTick_Handler+0x5c>)
10004166:	6812      	ldr	r2, [r2, #0]
10004168:	2101      	movs	r1, #1
1000416a:	438a      	bics	r2, r1
1000416c:	601a      	str	r2, [r3, #0]
1000416e:	4b06      	ldr	r3, [pc, #24]	; (10004188 <SysTick_Handler+0x5c>)
10004170:	4a05      	ldr	r2, [pc, #20]	; (10004188 <SysTick_Handler+0x5c>)
10004172:	6812      	ldr	r2, [r2, #0]
10004174:	2102      	movs	r1, #2
10004176:	430a      	orrs	r2, r1
10004178:	601a      	str	r2, [r3, #0]
1000417a:	4b02      	ldr	r3, [pc, #8]	; (10004184 <SysTick_Handler+0x58>)
1000417c:	2200      	movs	r2, #0
1000417e:	601a      	str	r2, [r3, #0]
10004180:	46bd      	mov	sp, r7
10004182:	bd80      	pop	{r7, pc}
10004184:	2000059c 	.word	0x2000059c
10004188:	40040100 	.word	0x40040100

1000418c <_Znwj>:
1000418c:	b510      	push	{r4, lr}
1000418e:	1e04      	subs	r4, r0, #0
10004190:	d102      	bne.n	10004198 <_Znwj+0xc>
10004192:	3401      	adds	r4, #1
10004194:	e000      	b.n	10004198 <_Znwj+0xc>
10004196:	4780      	blx	r0
10004198:	1c20      	adds	r0, r4, #0
1000419a:	f000 f9a3 	bl	100044e4 <malloc>
1000419e:	2800      	cmp	r0, #0
100041a0:	d105      	bne.n	100041ae <_Znwj+0x22>
100041a2:	f000 f809 	bl	100041b8 <_ZSt15get_new_handlerv>
100041a6:	2800      	cmp	r0, #0
100041a8:	d1f5      	bne.n	10004196 <_Znwj+0xa>
100041aa:	f000 f967 	bl	1000447c <abort>
100041ae:	bd10      	pop	{r4, pc}

100041b0 <_ZdlPv>:
100041b0:	b508      	push	{r3, lr}
100041b2:	f000 f9a1 	bl	100044f8 <free>
100041b6:	bd08      	pop	{r3, pc}

100041b8 <_ZSt15get_new_handlerv>:
100041b8:	4b01      	ldr	r3, [pc, #4]	; (100041c0 <_ZSt15get_new_handlerv+0x8>)
100041ba:	6818      	ldr	r0, [r3, #0]
100041bc:	4770      	bx	lr
100041be:	46c0      	nop			; (mov r8, r8)
100041c0:	200005a0 	.word	0x200005a0

100041c4 <_ZSt17__throw_bad_allocv>:
100041c4:	b508      	push	{r3, lr}
100041c6:	f000 f959 	bl	1000447c <abort>

100041ca <_ZSt20__throw_length_errorPKc>:
100041ca:	b508      	push	{r3, lr}
100041cc:	f000 f956 	bl	1000447c <abort>

100041d0 <_GLOBAL__sub_I__ZTSSt21__ctype_abstract_baseIcE>:
100041d0:	2301      	movs	r3, #1
100041d2:	4a24      	ldr	r2, [pc, #144]	; (10004264 <_GLOBAL__sub_I__ZTSSt21__ctype_abstract_baseIcE+0x94>)
100041d4:	6811      	ldr	r1, [r2, #0]
100041d6:	4219      	tst	r1, r3
100041d8:	d100      	bne.n	100041dc <_GLOBAL__sub_I__ZTSSt21__ctype_abstract_baseIcE+0xc>
100041da:	6013      	str	r3, [r2, #0]
100041dc:	4a22      	ldr	r2, [pc, #136]	; (10004268 <_GLOBAL__sub_I__ZTSSt21__ctype_abstract_baseIcE+0x98>)
100041de:	6811      	ldr	r1, [r2, #0]
100041e0:	4219      	tst	r1, r3
100041e2:	d101      	bne.n	100041e8 <_GLOBAL__sub_I__ZTSSt21__ctype_abstract_baseIcE+0x18>
100041e4:	2301      	movs	r3, #1
100041e6:	6013      	str	r3, [r2, #0]
100041e8:	2301      	movs	r3, #1
100041ea:	4a20      	ldr	r2, [pc, #128]	; (1000426c <_GLOBAL__sub_I__ZTSSt21__ctype_abstract_baseIcE+0x9c>)
100041ec:	6811      	ldr	r1, [r2, #0]
100041ee:	4219      	tst	r1, r3
100041f0:	d100      	bne.n	100041f4 <_GLOBAL__sub_I__ZTSSt21__ctype_abstract_baseIcE+0x24>
100041f2:	6013      	str	r3, [r2, #0]
100041f4:	4a1e      	ldr	r2, [pc, #120]	; (10004270 <_GLOBAL__sub_I__ZTSSt21__ctype_abstract_baseIcE+0xa0>)
100041f6:	6811      	ldr	r1, [r2, #0]
100041f8:	4219      	tst	r1, r3
100041fa:	d101      	bne.n	10004200 <_GLOBAL__sub_I__ZTSSt21__ctype_abstract_baseIcE+0x30>
100041fc:	2301      	movs	r3, #1
100041fe:	6013      	str	r3, [r2, #0]
10004200:	2301      	movs	r3, #1
10004202:	4a1c      	ldr	r2, [pc, #112]	; (10004274 <_GLOBAL__sub_I__ZTSSt21__ctype_abstract_baseIcE+0xa4>)
10004204:	6811      	ldr	r1, [r2, #0]
10004206:	4219      	tst	r1, r3
10004208:	d100      	bne.n	1000420c <_GLOBAL__sub_I__ZTSSt21__ctype_abstract_baseIcE+0x3c>
1000420a:	6013      	str	r3, [r2, #0]
1000420c:	4a1a      	ldr	r2, [pc, #104]	; (10004278 <_GLOBAL__sub_I__ZTSSt21__ctype_abstract_baseIcE+0xa8>)
1000420e:	6811      	ldr	r1, [r2, #0]
10004210:	4219      	tst	r1, r3
10004212:	d101      	bne.n	10004218 <_GLOBAL__sub_I__ZTSSt21__ctype_abstract_baseIcE+0x48>
10004214:	2301      	movs	r3, #1
10004216:	6013      	str	r3, [r2, #0]
10004218:	2301      	movs	r3, #1
1000421a:	4a18      	ldr	r2, [pc, #96]	; (1000427c <_GLOBAL__sub_I__ZTSSt21__ctype_abstract_baseIcE+0xac>)
1000421c:	6811      	ldr	r1, [r2, #0]
1000421e:	4219      	tst	r1, r3
10004220:	d100      	bne.n	10004224 <_GLOBAL__sub_I__ZTSSt21__ctype_abstract_baseIcE+0x54>
10004222:	6013      	str	r3, [r2, #0]
10004224:	4a16      	ldr	r2, [pc, #88]	; (10004280 <_GLOBAL__sub_I__ZTSSt21__ctype_abstract_baseIcE+0xb0>)
10004226:	6811      	ldr	r1, [r2, #0]
10004228:	4219      	tst	r1, r3
1000422a:	d101      	bne.n	10004230 <_GLOBAL__sub_I__ZTSSt21__ctype_abstract_baseIcE+0x60>
1000422c:	2301      	movs	r3, #1
1000422e:	6013      	str	r3, [r2, #0]
10004230:	2301      	movs	r3, #1
10004232:	4a14      	ldr	r2, [pc, #80]	; (10004284 <_GLOBAL__sub_I__ZTSSt21__ctype_abstract_baseIcE+0xb4>)
10004234:	6811      	ldr	r1, [r2, #0]
10004236:	4219      	tst	r1, r3
10004238:	d100      	bne.n	1000423c <_GLOBAL__sub_I__ZTSSt21__ctype_abstract_baseIcE+0x6c>
1000423a:	6013      	str	r3, [r2, #0]
1000423c:	4a12      	ldr	r2, [pc, #72]	; (10004288 <_GLOBAL__sub_I__ZTSSt21__ctype_abstract_baseIcE+0xb8>)
1000423e:	6811      	ldr	r1, [r2, #0]
10004240:	4219      	tst	r1, r3
10004242:	d101      	bne.n	10004248 <_GLOBAL__sub_I__ZTSSt21__ctype_abstract_baseIcE+0x78>
10004244:	2301      	movs	r3, #1
10004246:	6013      	str	r3, [r2, #0]
10004248:	2301      	movs	r3, #1
1000424a:	4a10      	ldr	r2, [pc, #64]	; (1000428c <_GLOBAL__sub_I__ZTSSt21__ctype_abstract_baseIcE+0xbc>)
1000424c:	6811      	ldr	r1, [r2, #0]
1000424e:	4219      	tst	r1, r3
10004250:	d100      	bne.n	10004254 <_GLOBAL__sub_I__ZTSSt21__ctype_abstract_baseIcE+0x84>
10004252:	6013      	str	r3, [r2, #0]
10004254:	4a0e      	ldr	r2, [pc, #56]	; (10004290 <_GLOBAL__sub_I__ZTSSt21__ctype_abstract_baseIcE+0xc0>)
10004256:	6811      	ldr	r1, [r2, #0]
10004258:	4219      	tst	r1, r3
1000425a:	d101      	bne.n	10004260 <_GLOBAL__sub_I__ZTSSt21__ctype_abstract_baseIcE+0x90>
1000425c:	2301      	movs	r3, #1
1000425e:	6013      	str	r3, [r2, #0]
10004260:	4770      	bx	lr
10004262:	46c0      	nop			; (mov r8, r8)
10004264:	200005d0 	.word	0x200005d0
10004268:	200005cc 	.word	0x200005cc
1000426c:	200005c8 	.word	0x200005c8
10004270:	200005c4 	.word	0x200005c4
10004274:	200005c0 	.word	0x200005c0
10004278:	200005bc 	.word	0x200005bc
1000427c:	200005b8 	.word	0x200005b8
10004280:	200005b4 	.word	0x200005b4
10004284:	200005b0 	.word	0x200005b0
10004288:	200005ac 	.word	0x200005ac
1000428c:	200005a8 	.word	0x200005a8
10004290:	200005a4 	.word	0x200005a4

10004294 <_GLOBAL__sub_I__ZTSSt16__numpunct_cacheIwE>:
10004294:	2301      	movs	r3, #1
10004296:	4a24      	ldr	r2, [pc, #144]	; (10004328 <_GLOBAL__sub_I__ZTSSt16__numpunct_cacheIwE+0x94>)
10004298:	6811      	ldr	r1, [r2, #0]
1000429a:	4219      	tst	r1, r3
1000429c:	d100      	bne.n	100042a0 <_GLOBAL__sub_I__ZTSSt16__numpunct_cacheIwE+0xc>
1000429e:	6013      	str	r3, [r2, #0]
100042a0:	4a22      	ldr	r2, [pc, #136]	; (1000432c <_GLOBAL__sub_I__ZTSSt16__numpunct_cacheIwE+0x98>)
100042a2:	6811      	ldr	r1, [r2, #0]
100042a4:	4219      	tst	r1, r3
100042a6:	d101      	bne.n	100042ac <_GLOBAL__sub_I__ZTSSt16__numpunct_cacheIwE+0x18>
100042a8:	2301      	movs	r3, #1
100042aa:	6013      	str	r3, [r2, #0]
100042ac:	2301      	movs	r3, #1
100042ae:	4a20      	ldr	r2, [pc, #128]	; (10004330 <_GLOBAL__sub_I__ZTSSt16__numpunct_cacheIwE+0x9c>)
100042b0:	6811      	ldr	r1, [r2, #0]
100042b2:	4219      	tst	r1, r3
100042b4:	d100      	bne.n	100042b8 <_GLOBAL__sub_I__ZTSSt16__numpunct_cacheIwE+0x24>
100042b6:	6013      	str	r3, [r2, #0]
100042b8:	4a1e      	ldr	r2, [pc, #120]	; (10004334 <_GLOBAL__sub_I__ZTSSt16__numpunct_cacheIwE+0xa0>)
100042ba:	6811      	ldr	r1, [r2, #0]
100042bc:	4219      	tst	r1, r3
100042be:	d101      	bne.n	100042c4 <_GLOBAL__sub_I__ZTSSt16__numpunct_cacheIwE+0x30>
100042c0:	2301      	movs	r3, #1
100042c2:	6013      	str	r3, [r2, #0]
100042c4:	2301      	movs	r3, #1
100042c6:	4a1c      	ldr	r2, [pc, #112]	; (10004338 <_GLOBAL__sub_I__ZTSSt16__numpunct_cacheIwE+0xa4>)
100042c8:	6811      	ldr	r1, [r2, #0]
100042ca:	4219      	tst	r1, r3
100042cc:	d100      	bne.n	100042d0 <_GLOBAL__sub_I__ZTSSt16__numpunct_cacheIwE+0x3c>
100042ce:	6013      	str	r3, [r2, #0]
100042d0:	4a1a      	ldr	r2, [pc, #104]	; (1000433c <_GLOBAL__sub_I__ZTSSt16__numpunct_cacheIwE+0xa8>)
100042d2:	6811      	ldr	r1, [r2, #0]
100042d4:	4219      	tst	r1, r3
100042d6:	d101      	bne.n	100042dc <_GLOBAL__sub_I__ZTSSt16__numpunct_cacheIwE+0x48>
100042d8:	2301      	movs	r3, #1
100042da:	6013      	str	r3, [r2, #0]
100042dc:	2301      	movs	r3, #1
100042de:	4a18      	ldr	r2, [pc, #96]	; (10004340 <_GLOBAL__sub_I__ZTSSt16__numpunct_cacheIwE+0xac>)
100042e0:	6811      	ldr	r1, [r2, #0]
100042e2:	4219      	tst	r1, r3
100042e4:	d100      	bne.n	100042e8 <_GLOBAL__sub_I__ZTSSt16__numpunct_cacheIwE+0x54>
100042e6:	6013      	str	r3, [r2, #0]
100042e8:	4a16      	ldr	r2, [pc, #88]	; (10004344 <_GLOBAL__sub_I__ZTSSt16__numpunct_cacheIwE+0xb0>)
100042ea:	6811      	ldr	r1, [r2, #0]
100042ec:	4219      	tst	r1, r3
100042ee:	d101      	bne.n	100042f4 <_GLOBAL__sub_I__ZTSSt16__numpunct_cacheIwE+0x60>
100042f0:	2301      	movs	r3, #1
100042f2:	6013      	str	r3, [r2, #0]
100042f4:	2301      	movs	r3, #1
100042f6:	4a14      	ldr	r2, [pc, #80]	; (10004348 <_GLOBAL__sub_I__ZTSSt16__numpunct_cacheIwE+0xb4>)
100042f8:	6811      	ldr	r1, [r2, #0]
100042fa:	4219      	tst	r1, r3
100042fc:	d100      	bne.n	10004300 <_GLOBAL__sub_I__ZTSSt16__numpunct_cacheIwE+0x6c>
100042fe:	6013      	str	r3, [r2, #0]
10004300:	4a12      	ldr	r2, [pc, #72]	; (1000434c <_GLOBAL__sub_I__ZTSSt16__numpunct_cacheIwE+0xb8>)
10004302:	6811      	ldr	r1, [r2, #0]
10004304:	4219      	tst	r1, r3
10004306:	d101      	bne.n	1000430c <_GLOBAL__sub_I__ZTSSt16__numpunct_cacheIwE+0x78>
10004308:	2301      	movs	r3, #1
1000430a:	6013      	str	r3, [r2, #0]
1000430c:	2301      	movs	r3, #1
1000430e:	4a10      	ldr	r2, [pc, #64]	; (10004350 <_GLOBAL__sub_I__ZTSSt16__numpunct_cacheIwE+0xbc>)
10004310:	6811      	ldr	r1, [r2, #0]
10004312:	4219      	tst	r1, r3
10004314:	d100      	bne.n	10004318 <_GLOBAL__sub_I__ZTSSt16__numpunct_cacheIwE+0x84>
10004316:	6013      	str	r3, [r2, #0]
10004318:	4a0e      	ldr	r2, [pc, #56]	; (10004354 <_GLOBAL__sub_I__ZTSSt16__numpunct_cacheIwE+0xc0>)
1000431a:	6811      	ldr	r1, [r2, #0]
1000431c:	4219      	tst	r1, r3
1000431e:	d101      	bne.n	10004324 <_GLOBAL__sub_I__ZTSSt16__numpunct_cacheIwE+0x90>
10004320:	2301      	movs	r3, #1
10004322:	6013      	str	r3, [r2, #0]
10004324:	4770      	bx	lr
10004326:	46c0      	nop			; (mov r8, r8)
10004328:	20000600 	.word	0x20000600
1000432c:	200005fc 	.word	0x200005fc
10004330:	200005f8 	.word	0x200005f8
10004334:	200005f4 	.word	0x200005f4
10004338:	200005f0 	.word	0x200005f0
1000433c:	200005ec 	.word	0x200005ec
10004340:	200005e8 	.word	0x200005e8
10004344:	200005e4 	.word	0x200005e4
10004348:	200005e0 	.word	0x200005e0
1000434c:	200005dc 	.word	0x200005dc
10004350:	200005d8 	.word	0x200005d8
10004354:	200005d4 	.word	0x200005d4

10004358 <__aeabi_uidiv>:
10004358:	2200      	movs	r2, #0
1000435a:	0843      	lsrs	r3, r0, #1
1000435c:	428b      	cmp	r3, r1
1000435e:	d374      	bcc.n	1000444a <__aeabi_uidiv+0xf2>
10004360:	0903      	lsrs	r3, r0, #4
10004362:	428b      	cmp	r3, r1
10004364:	d35f      	bcc.n	10004426 <__aeabi_uidiv+0xce>
10004366:	0a03      	lsrs	r3, r0, #8
10004368:	428b      	cmp	r3, r1
1000436a:	d344      	bcc.n	100043f6 <__aeabi_uidiv+0x9e>
1000436c:	0b03      	lsrs	r3, r0, #12
1000436e:	428b      	cmp	r3, r1
10004370:	d328      	bcc.n	100043c4 <__aeabi_uidiv+0x6c>
10004372:	0c03      	lsrs	r3, r0, #16
10004374:	428b      	cmp	r3, r1
10004376:	d30d      	bcc.n	10004394 <__aeabi_uidiv+0x3c>
10004378:	22ff      	movs	r2, #255	; 0xff
1000437a:	0209      	lsls	r1, r1, #8
1000437c:	ba12      	rev	r2, r2
1000437e:	0c03      	lsrs	r3, r0, #16
10004380:	428b      	cmp	r3, r1
10004382:	d302      	bcc.n	1000438a <__aeabi_uidiv+0x32>
10004384:	1212      	asrs	r2, r2, #8
10004386:	0209      	lsls	r1, r1, #8
10004388:	d065      	beq.n	10004456 <__aeabi_uidiv+0xfe>
1000438a:	0b03      	lsrs	r3, r0, #12
1000438c:	428b      	cmp	r3, r1
1000438e:	d319      	bcc.n	100043c4 <__aeabi_uidiv+0x6c>
10004390:	e000      	b.n	10004394 <__aeabi_uidiv+0x3c>
10004392:	0a09      	lsrs	r1, r1, #8
10004394:	0bc3      	lsrs	r3, r0, #15
10004396:	428b      	cmp	r3, r1
10004398:	d301      	bcc.n	1000439e <__aeabi_uidiv+0x46>
1000439a:	03cb      	lsls	r3, r1, #15
1000439c:	1ac0      	subs	r0, r0, r3
1000439e:	4152      	adcs	r2, r2
100043a0:	0b83      	lsrs	r3, r0, #14
100043a2:	428b      	cmp	r3, r1
100043a4:	d301      	bcc.n	100043aa <__aeabi_uidiv+0x52>
100043a6:	038b      	lsls	r3, r1, #14
100043a8:	1ac0      	subs	r0, r0, r3
100043aa:	4152      	adcs	r2, r2
100043ac:	0b43      	lsrs	r3, r0, #13
100043ae:	428b      	cmp	r3, r1
100043b0:	d301      	bcc.n	100043b6 <__aeabi_uidiv+0x5e>
100043b2:	034b      	lsls	r3, r1, #13
100043b4:	1ac0      	subs	r0, r0, r3
100043b6:	4152      	adcs	r2, r2
100043b8:	0b03      	lsrs	r3, r0, #12
100043ba:	428b      	cmp	r3, r1
100043bc:	d301      	bcc.n	100043c2 <__aeabi_uidiv+0x6a>
100043be:	030b      	lsls	r3, r1, #12
100043c0:	1ac0      	subs	r0, r0, r3
100043c2:	4152      	adcs	r2, r2
100043c4:	0ac3      	lsrs	r3, r0, #11
100043c6:	428b      	cmp	r3, r1
100043c8:	d301      	bcc.n	100043ce <__aeabi_uidiv+0x76>
100043ca:	02cb      	lsls	r3, r1, #11
100043cc:	1ac0      	subs	r0, r0, r3
100043ce:	4152      	adcs	r2, r2
100043d0:	0a83      	lsrs	r3, r0, #10
100043d2:	428b      	cmp	r3, r1
100043d4:	d301      	bcc.n	100043da <__aeabi_uidiv+0x82>
100043d6:	028b      	lsls	r3, r1, #10
100043d8:	1ac0      	subs	r0, r0, r3
100043da:	4152      	adcs	r2, r2
100043dc:	0a43      	lsrs	r3, r0, #9
100043de:	428b      	cmp	r3, r1
100043e0:	d301      	bcc.n	100043e6 <__aeabi_uidiv+0x8e>
100043e2:	024b      	lsls	r3, r1, #9
100043e4:	1ac0      	subs	r0, r0, r3
100043e6:	4152      	adcs	r2, r2
100043e8:	0a03      	lsrs	r3, r0, #8
100043ea:	428b      	cmp	r3, r1
100043ec:	d301      	bcc.n	100043f2 <__aeabi_uidiv+0x9a>
100043ee:	020b      	lsls	r3, r1, #8
100043f0:	1ac0      	subs	r0, r0, r3
100043f2:	4152      	adcs	r2, r2
100043f4:	d2cd      	bcs.n	10004392 <__aeabi_uidiv+0x3a>
100043f6:	09c3      	lsrs	r3, r0, #7
100043f8:	428b      	cmp	r3, r1
100043fa:	d301      	bcc.n	10004400 <__aeabi_uidiv+0xa8>
100043fc:	01cb      	lsls	r3, r1, #7
100043fe:	1ac0      	subs	r0, r0, r3
10004400:	4152      	adcs	r2, r2
10004402:	0983      	lsrs	r3, r0, #6
10004404:	428b      	cmp	r3, r1
10004406:	d301      	bcc.n	1000440c <__aeabi_uidiv+0xb4>
10004408:	018b      	lsls	r3, r1, #6
1000440a:	1ac0      	subs	r0, r0, r3
1000440c:	4152      	adcs	r2, r2
1000440e:	0943      	lsrs	r3, r0, #5
10004410:	428b      	cmp	r3, r1
10004412:	d301      	bcc.n	10004418 <__aeabi_uidiv+0xc0>
10004414:	014b      	lsls	r3, r1, #5
10004416:	1ac0      	subs	r0, r0, r3
10004418:	4152      	adcs	r2, r2
1000441a:	0903      	lsrs	r3, r0, #4
1000441c:	428b      	cmp	r3, r1
1000441e:	d301      	bcc.n	10004424 <__aeabi_uidiv+0xcc>
10004420:	010b      	lsls	r3, r1, #4
10004422:	1ac0      	subs	r0, r0, r3
10004424:	4152      	adcs	r2, r2
10004426:	08c3      	lsrs	r3, r0, #3
10004428:	428b      	cmp	r3, r1
1000442a:	d301      	bcc.n	10004430 <__aeabi_uidiv+0xd8>
1000442c:	00cb      	lsls	r3, r1, #3
1000442e:	1ac0      	subs	r0, r0, r3
10004430:	4152      	adcs	r2, r2
10004432:	0883      	lsrs	r3, r0, #2
10004434:	428b      	cmp	r3, r1
10004436:	d301      	bcc.n	1000443c <__aeabi_uidiv+0xe4>
10004438:	008b      	lsls	r3, r1, #2
1000443a:	1ac0      	subs	r0, r0, r3
1000443c:	4152      	adcs	r2, r2
1000443e:	0843      	lsrs	r3, r0, #1
10004440:	428b      	cmp	r3, r1
10004442:	d301      	bcc.n	10004448 <__aeabi_uidiv+0xf0>
10004444:	004b      	lsls	r3, r1, #1
10004446:	1ac0      	subs	r0, r0, r3
10004448:	4152      	adcs	r2, r2
1000444a:	1a41      	subs	r1, r0, r1
1000444c:	d200      	bcs.n	10004450 <__aeabi_uidiv+0xf8>
1000444e:	4601      	mov	r1, r0
10004450:	4152      	adcs	r2, r2
10004452:	4610      	mov	r0, r2
10004454:	4770      	bx	lr
10004456:	e7ff      	b.n	10004458 <__aeabi_uidiv+0x100>
10004458:	b501      	push	{r0, lr}
1000445a:	2000      	movs	r0, #0
1000445c:	f000 f80c 	bl	10004478 <__aeabi_idiv0>
10004460:	bd02      	pop	{r1, pc}
10004462:	46c0      	nop			; (mov r8, r8)

10004464 <__aeabi_uidivmod>:
10004464:	2900      	cmp	r1, #0
10004466:	d0f7      	beq.n	10004458 <__aeabi_uidiv+0x100>
10004468:	b503      	push	{r0, r1, lr}
1000446a:	f7ff ff75 	bl	10004358 <__aeabi_uidiv>
1000446e:	bc0e      	pop	{r1, r2, r3}
10004470:	4342      	muls	r2, r0
10004472:	1a89      	subs	r1, r1, r2
10004474:	4718      	bx	r3
10004476:	46c0      	nop			; (mov r8, r8)

10004478 <__aeabi_idiv0>:
10004478:	4770      	bx	lr
1000447a:	46c0      	nop			; (mov r8, r8)

1000447c <abort>:
1000447c:	b508      	push	{r3, lr}
1000447e:	2006      	movs	r0, #6
10004480:	f000 f932 	bl	100046e8 <raise>
10004484:	2001      	movs	r0, #1
10004486:	f000 f95f 	bl	10004748 <_exit>
	...

1000448c <__errno>:
1000448c:	4b01      	ldr	r3, [pc, #4]	; (10004494 <__errno+0x8>)
1000448e:	6818      	ldr	r0, [r3, #0]
10004490:	4770      	bx	lr
10004492:	46c0      	nop			; (mov r8, r8)
10004494:	20000584 	.word	0x20000584

10004498 <__libc_init_array>:
10004498:	4b0e      	ldr	r3, [pc, #56]	; (100044d4 <__libc_init_array+0x3c>)
1000449a:	b570      	push	{r4, r5, r6, lr}
1000449c:	2500      	movs	r5, #0
1000449e:	1c1e      	adds	r6, r3, #0
100044a0:	4c0d      	ldr	r4, [pc, #52]	; (100044d8 <__libc_init_array+0x40>)
100044a2:	1ae4      	subs	r4, r4, r3
100044a4:	10a4      	asrs	r4, r4, #2
100044a6:	42a5      	cmp	r5, r4
100044a8:	d004      	beq.n	100044b4 <__libc_init_array+0x1c>
100044aa:	00ab      	lsls	r3, r5, #2
100044ac:	58f3      	ldr	r3, [r6, r3]
100044ae:	4798      	blx	r3
100044b0:	3501      	adds	r5, #1
100044b2:	e7f8      	b.n	100044a6 <__libc_init_array+0xe>
100044b4:	f7ff fb46 	bl	10003b44 <_init>
100044b8:	4b08      	ldr	r3, [pc, #32]	; (100044dc <__libc_init_array+0x44>)
100044ba:	2500      	movs	r5, #0
100044bc:	1c1e      	adds	r6, r3, #0
100044be:	4c08      	ldr	r4, [pc, #32]	; (100044e0 <__libc_init_array+0x48>)
100044c0:	1ae4      	subs	r4, r4, r3
100044c2:	10a4      	asrs	r4, r4, #2
100044c4:	42a5      	cmp	r5, r4
100044c6:	d004      	beq.n	100044d2 <__libc_init_array+0x3a>
100044c8:	00ab      	lsls	r3, r5, #2
100044ca:	58f3      	ldr	r3, [r6, r3]
100044cc:	4798      	blx	r3
100044ce:	3501      	adds	r5, #1
100044d0:	e7f8      	b.n	100044c4 <__libc_init_array+0x2c>
100044d2:	bd70      	pop	{r4, r5, r6, pc}
100044d4:	20000588 	.word	0x20000588
100044d8:	20000588 	.word	0x20000588
100044dc:	20000588 	.word	0x20000588
100044e0:	20000590 	.word	0x20000590

100044e4 <malloc>:
100044e4:	b508      	push	{r3, lr}
100044e6:	4b03      	ldr	r3, [pc, #12]	; (100044f4 <malloc+0x10>)
100044e8:	1c01      	adds	r1, r0, #0
100044ea:	6818      	ldr	r0, [r3, #0]
100044ec:	f000 f868 	bl	100045c0 <_malloc_r>
100044f0:	bd08      	pop	{r3, pc}
100044f2:	46c0      	nop			; (mov r8, r8)
100044f4:	20000584 	.word	0x20000584

100044f8 <free>:
100044f8:	b508      	push	{r3, lr}
100044fa:	4b03      	ldr	r3, [pc, #12]	; (10004508 <free+0x10>)
100044fc:	1c01      	adds	r1, r0, #0
100044fe:	6818      	ldr	r0, [r3, #0]
10004500:	f000 f818 	bl	10004534 <_free_r>
10004504:	bd08      	pop	{r3, pc}
10004506:	46c0      	nop			; (mov r8, r8)
10004508:	20000584 	.word	0x20000584

1000450c <memmove>:
1000450c:	b510      	push	{r4, lr}
1000450e:	4281      	cmp	r1, r0
10004510:	d208      	bcs.n	10004524 <memmove+0x18>
10004512:	188b      	adds	r3, r1, r2
10004514:	4298      	cmp	r0, r3
10004516:	d205      	bcs.n	10004524 <memmove+0x18>
10004518:	1a9b      	subs	r3, r3, r2
1000451a:	3a01      	subs	r2, #1
1000451c:	d309      	bcc.n	10004532 <memmove+0x26>
1000451e:	5c99      	ldrb	r1, [r3, r2]
10004520:	5481      	strb	r1, [r0, r2]
10004522:	e7fa      	b.n	1000451a <memmove+0xe>
10004524:	2300      	movs	r3, #0
10004526:	4293      	cmp	r3, r2
10004528:	d003      	beq.n	10004532 <memmove+0x26>
1000452a:	5ccc      	ldrb	r4, [r1, r3]
1000452c:	54c4      	strb	r4, [r0, r3]
1000452e:	3301      	adds	r3, #1
10004530:	e7f9      	b.n	10004526 <memmove+0x1a>
10004532:	bd10      	pop	{r4, pc}

10004534 <_free_r>:
10004534:	b530      	push	{r4, r5, lr}
10004536:	2900      	cmp	r1, #0
10004538:	d03e      	beq.n	100045b8 <_free_r+0x84>
1000453a:	3904      	subs	r1, #4
1000453c:	680b      	ldr	r3, [r1, #0]
1000453e:	2b00      	cmp	r3, #0
10004540:	da00      	bge.n	10004544 <_free_r+0x10>
10004542:	18c9      	adds	r1, r1, r3
10004544:	4a1d      	ldr	r2, [pc, #116]	; (100045bc <_free_r+0x88>)
10004546:	6813      	ldr	r3, [r2, #0]
10004548:	1c14      	adds	r4, r2, #0
1000454a:	2b00      	cmp	r3, #0
1000454c:	d102      	bne.n	10004554 <_free_r+0x20>
1000454e:	604b      	str	r3, [r1, #4]
10004550:	6011      	str	r1, [r2, #0]
10004552:	e031      	b.n	100045b8 <_free_r+0x84>
10004554:	4299      	cmp	r1, r3
10004556:	d20d      	bcs.n	10004574 <_free_r+0x40>
10004558:	6808      	ldr	r0, [r1, #0]
1000455a:	180a      	adds	r2, r1, r0
1000455c:	429a      	cmp	r2, r3
1000455e:	d103      	bne.n	10004568 <_free_r+0x34>
10004560:	6813      	ldr	r3, [r2, #0]
10004562:	18c3      	adds	r3, r0, r3
10004564:	600b      	str	r3, [r1, #0]
10004566:	6853      	ldr	r3, [r2, #4]
10004568:	604b      	str	r3, [r1, #4]
1000456a:	6021      	str	r1, [r4, #0]
1000456c:	e024      	b.n	100045b8 <_free_r+0x84>
1000456e:	428a      	cmp	r2, r1
10004570:	d803      	bhi.n	1000457a <_free_r+0x46>
10004572:	1c13      	adds	r3, r2, #0
10004574:	685a      	ldr	r2, [r3, #4]
10004576:	2a00      	cmp	r2, #0
10004578:	d1f9      	bne.n	1000456e <_free_r+0x3a>
1000457a:	681d      	ldr	r5, [r3, #0]
1000457c:	195c      	adds	r4, r3, r5
1000457e:	428c      	cmp	r4, r1
10004580:	d10b      	bne.n	1000459a <_free_r+0x66>
10004582:	6809      	ldr	r1, [r1, #0]
10004584:	1869      	adds	r1, r5, r1
10004586:	1858      	adds	r0, r3, r1
10004588:	6019      	str	r1, [r3, #0]
1000458a:	4290      	cmp	r0, r2
1000458c:	d114      	bne.n	100045b8 <_free_r+0x84>
1000458e:	6810      	ldr	r0, [r2, #0]
10004590:	6852      	ldr	r2, [r2, #4]
10004592:	1809      	adds	r1, r1, r0
10004594:	6019      	str	r1, [r3, #0]
10004596:	605a      	str	r2, [r3, #4]
10004598:	e00e      	b.n	100045b8 <_free_r+0x84>
1000459a:	428c      	cmp	r4, r1
1000459c:	d902      	bls.n	100045a4 <_free_r+0x70>
1000459e:	230c      	movs	r3, #12
100045a0:	6003      	str	r3, [r0, #0]
100045a2:	e009      	b.n	100045b8 <_free_r+0x84>
100045a4:	6808      	ldr	r0, [r1, #0]
100045a6:	180c      	adds	r4, r1, r0
100045a8:	4294      	cmp	r4, r2
100045aa:	d103      	bne.n	100045b4 <_free_r+0x80>
100045ac:	6814      	ldr	r4, [r2, #0]
100045ae:	6852      	ldr	r2, [r2, #4]
100045b0:	1900      	adds	r0, r0, r4
100045b2:	6008      	str	r0, [r1, #0]
100045b4:	604a      	str	r2, [r1, #4]
100045b6:	6059      	str	r1, [r3, #4]
100045b8:	bd30      	pop	{r4, r5, pc}
100045ba:	46c0      	nop			; (mov r8, r8)
100045bc:	20000608 	.word	0x20000608

100045c0 <_malloc_r>:
100045c0:	2303      	movs	r3, #3
100045c2:	b570      	push	{r4, r5, r6, lr}
100045c4:	1ccc      	adds	r4, r1, #3
100045c6:	439c      	bics	r4, r3
100045c8:	3408      	adds	r4, #8
100045ca:	1c05      	adds	r5, r0, #0
100045cc:	2c0c      	cmp	r4, #12
100045ce:	d201      	bcs.n	100045d4 <_malloc_r+0x14>
100045d0:	240c      	movs	r4, #12
100045d2:	e005      	b.n	100045e0 <_malloc_r+0x20>
100045d4:	2c00      	cmp	r4, #0
100045d6:	da03      	bge.n	100045e0 <_malloc_r+0x20>
100045d8:	230c      	movs	r3, #12
100045da:	2000      	movs	r0, #0
100045dc:	602b      	str	r3, [r5, #0]
100045de:	e042      	b.n	10004666 <_malloc_r+0xa6>
100045e0:	428c      	cmp	r4, r1
100045e2:	d3f9      	bcc.n	100045d8 <_malloc_r+0x18>
100045e4:	4a20      	ldr	r2, [pc, #128]	; (10004668 <_malloc_r+0xa8>)
100045e6:	6813      	ldr	r3, [r2, #0]
100045e8:	1c10      	adds	r0, r2, #0
100045ea:	1c19      	adds	r1, r3, #0
100045ec:	2900      	cmp	r1, #0
100045ee:	d013      	beq.n	10004618 <_malloc_r+0x58>
100045f0:	680a      	ldr	r2, [r1, #0]
100045f2:	1b12      	subs	r2, r2, r4
100045f4:	d40d      	bmi.n	10004612 <_malloc_r+0x52>
100045f6:	2a0b      	cmp	r2, #11
100045f8:	d902      	bls.n	10004600 <_malloc_r+0x40>
100045fa:	600a      	str	r2, [r1, #0]
100045fc:	188b      	adds	r3, r1, r2
100045fe:	e01f      	b.n	10004640 <_malloc_r+0x80>
10004600:	428b      	cmp	r3, r1
10004602:	d102      	bne.n	1000460a <_malloc_r+0x4a>
10004604:	685a      	ldr	r2, [r3, #4]
10004606:	6002      	str	r2, [r0, #0]
10004608:	e01b      	b.n	10004642 <_malloc_r+0x82>
1000460a:	684a      	ldr	r2, [r1, #4]
1000460c:	605a      	str	r2, [r3, #4]
1000460e:	1c0b      	adds	r3, r1, #0
10004610:	e017      	b.n	10004642 <_malloc_r+0x82>
10004612:	1c0b      	adds	r3, r1, #0
10004614:	6849      	ldr	r1, [r1, #4]
10004616:	e7e9      	b.n	100045ec <_malloc_r+0x2c>
10004618:	4e14      	ldr	r6, [pc, #80]	; (1000466c <_malloc_r+0xac>)
1000461a:	6833      	ldr	r3, [r6, #0]
1000461c:	2b00      	cmp	r3, #0
1000461e:	d103      	bne.n	10004628 <_malloc_r+0x68>
10004620:	1c28      	adds	r0, r5, #0
10004622:	f000 f825 	bl	10004670 <_sbrk_r>
10004626:	6030      	str	r0, [r6, #0]
10004628:	1c28      	adds	r0, r5, #0
1000462a:	1c21      	adds	r1, r4, #0
1000462c:	f000 f820 	bl	10004670 <_sbrk_r>
10004630:	1c03      	adds	r3, r0, #0
10004632:	1c42      	adds	r2, r0, #1
10004634:	d0d0      	beq.n	100045d8 <_malloc_r+0x18>
10004636:	2203      	movs	r2, #3
10004638:	1cc6      	adds	r6, r0, #3
1000463a:	4396      	bics	r6, r2
1000463c:	4286      	cmp	r6, r0
1000463e:	d10a      	bne.n	10004656 <_malloc_r+0x96>
10004640:	601c      	str	r4, [r3, #0]
10004642:	1c18      	adds	r0, r3, #0
10004644:	2107      	movs	r1, #7
10004646:	300b      	adds	r0, #11
10004648:	1d1a      	adds	r2, r3, #4
1000464a:	4388      	bics	r0, r1
1000464c:	1a82      	subs	r2, r0, r2
1000464e:	d00a      	beq.n	10004666 <_malloc_r+0xa6>
10004650:	4251      	negs	r1, r2
10004652:	5099      	str	r1, [r3, r2]
10004654:	e007      	b.n	10004666 <_malloc_r+0xa6>
10004656:	1a31      	subs	r1, r6, r0
10004658:	1c28      	adds	r0, r5, #0
1000465a:	f000 f809 	bl	10004670 <_sbrk_r>
1000465e:	1c43      	adds	r3, r0, #1
10004660:	d0ba      	beq.n	100045d8 <_malloc_r+0x18>
10004662:	1c33      	adds	r3, r6, #0
10004664:	e7ec      	b.n	10004640 <_malloc_r+0x80>
10004666:	bd70      	pop	{r4, r5, r6, pc}
10004668:	20000608 	.word	0x20000608
1000466c:	20000604 	.word	0x20000604

10004670 <_sbrk_r>:
10004670:	b538      	push	{r3, r4, r5, lr}
10004672:	2300      	movs	r3, #0
10004674:	4c06      	ldr	r4, [pc, #24]	; (10004690 <_sbrk_r+0x20>)
10004676:	1c05      	adds	r5, r0, #0
10004678:	1c08      	adds	r0, r1, #0
1000467a:	6023      	str	r3, [r4, #0]
1000467c:	f7ff fa2e 	bl	10003adc <_sbrk>
10004680:	1c43      	adds	r3, r0, #1
10004682:	d103      	bne.n	1000468c <_sbrk_r+0x1c>
10004684:	6823      	ldr	r3, [r4, #0]
10004686:	2b00      	cmp	r3, #0
10004688:	d000      	beq.n	1000468c <_sbrk_r+0x1c>
1000468a:	602b      	str	r3, [r5, #0]
1000468c:	bd38      	pop	{r3, r4, r5, pc}
1000468e:	46c0      	nop			; (mov r8, r8)
10004690:	2000060c 	.word	0x2000060c

10004694 <_raise_r>:
10004694:	b538      	push	{r3, r4, r5, lr}
10004696:	291f      	cmp	r1, #31
10004698:	d904      	bls.n	100046a4 <_raise_r+0x10>
1000469a:	2316      	movs	r3, #22
1000469c:	6003      	str	r3, [r0, #0]
1000469e:	2001      	movs	r0, #1
100046a0:	4240      	negs	r0, r0
100046a2:	e020      	b.n	100046e6 <_raise_r+0x52>
100046a4:	6c42      	ldr	r2, [r0, #68]	; 0x44
100046a6:	1c0d      	adds	r5, r1, #0
100046a8:	1c04      	adds	r4, r0, #0
100046aa:	2a00      	cmp	r2, #0
100046ac:	d004      	beq.n	100046b8 <_raise_r+0x24>
100046ae:	008b      	lsls	r3, r1, #2
100046b0:	18d2      	adds	r2, r2, r3
100046b2:	6813      	ldr	r3, [r2, #0]
100046b4:	2b00      	cmp	r3, #0
100046b6:	d108      	bne.n	100046ca <_raise_r+0x36>
100046b8:	1c20      	adds	r0, r4, #0
100046ba:	f000 f831 	bl	10004720 <_getpid_r>
100046be:	1c2a      	adds	r2, r5, #0
100046c0:	1c01      	adds	r1, r0, #0
100046c2:	1c20      	adds	r0, r4, #0
100046c4:	f000 f81a 	bl	100046fc <_kill_r>
100046c8:	e00d      	b.n	100046e6 <_raise_r+0x52>
100046ca:	2000      	movs	r0, #0
100046cc:	2b01      	cmp	r3, #1
100046ce:	d00a      	beq.n	100046e6 <_raise_r+0x52>
100046d0:	1c59      	adds	r1, r3, #1
100046d2:	d103      	bne.n	100046dc <_raise_r+0x48>
100046d4:	3317      	adds	r3, #23
100046d6:	6023      	str	r3, [r4, #0]
100046d8:	3001      	adds	r0, #1
100046da:	e004      	b.n	100046e6 <_raise_r+0x52>
100046dc:	2400      	movs	r4, #0
100046de:	1c28      	adds	r0, r5, #0
100046e0:	6014      	str	r4, [r2, #0]
100046e2:	4798      	blx	r3
100046e4:	1c20      	adds	r0, r4, #0
100046e6:	bd38      	pop	{r3, r4, r5, pc}

100046e8 <raise>:
100046e8:	b508      	push	{r3, lr}
100046ea:	4b03      	ldr	r3, [pc, #12]	; (100046f8 <raise+0x10>)
100046ec:	1c01      	adds	r1, r0, #0
100046ee:	6818      	ldr	r0, [r3, #0]
100046f0:	f7ff ffd0 	bl	10004694 <_raise_r>
100046f4:	bd08      	pop	{r3, pc}
100046f6:	46c0      	nop			; (mov r8, r8)
100046f8:	20000584 	.word	0x20000584

100046fc <_kill_r>:
100046fc:	b538      	push	{r3, r4, r5, lr}
100046fe:	2300      	movs	r3, #0
10004700:	4c06      	ldr	r4, [pc, #24]	; (1000471c <_kill_r+0x20>)
10004702:	1c05      	adds	r5, r0, #0
10004704:	1c08      	adds	r0, r1, #0
10004706:	1c11      	adds	r1, r2, #0
10004708:	6023      	str	r3, [r4, #0]
1000470a:	f000 f815 	bl	10004738 <_kill>
1000470e:	1c43      	adds	r3, r0, #1
10004710:	d103      	bne.n	1000471a <_kill_r+0x1e>
10004712:	6823      	ldr	r3, [r4, #0]
10004714:	2b00      	cmp	r3, #0
10004716:	d000      	beq.n	1000471a <_kill_r+0x1e>
10004718:	602b      	str	r3, [r5, #0]
1000471a:	bd38      	pop	{r3, r4, r5, pc}
1000471c:	2000060c 	.word	0x2000060c

10004720 <_getpid_r>:
10004720:	b508      	push	{r3, lr}
10004722:	f000 f801 	bl	10004728 <_getpid>
10004726:	bd08      	pop	{r3, pc}

10004728 <_getpid>:
10004728:	2258      	movs	r2, #88	; 0x58
1000472a:	2001      	movs	r0, #1
1000472c:	4b01      	ldr	r3, [pc, #4]	; (10004734 <_getpid+0xc>)
1000472e:	4240      	negs	r0, r0
10004730:	601a      	str	r2, [r3, #0]
10004732:	4770      	bx	lr
10004734:	2000060c 	.word	0x2000060c

10004738 <_kill>:
10004738:	2258      	movs	r2, #88	; 0x58
1000473a:	2001      	movs	r0, #1
1000473c:	4b01      	ldr	r3, [pc, #4]	; (10004744 <_kill+0xc>)
1000473e:	4240      	negs	r0, r0
10004740:	601a      	str	r2, [r3, #0]
10004742:	4770      	bx	lr
10004744:	2000060c 	.word	0x2000060c

10004748 <_exit>:
10004748:	e7fe      	b.n	10004748 <_exit>
1000474a:	46c0      	nop			; (mov r8, r8)
1000474c:	0000      	movs	r0, r0
	...

10004750 <_ZTV7PinBase>:
	...
10004758:	10c9 1000 10f5 1000                         ........

10004760 <_ZTV13ShiftRegister>:
	...
10004768:	11b9 1000 11e5 1000 1209 1000 1255 1000     ............U...
10004778:	12b1 1000 12fd 1000 6576 7463 726f 3a3a     ........vector::
10004788:	4d5f 695f 736e 7265 5f74 7561 0078 0000     _M_insert_aux...

10004798 <_ZTV18ShiftRegisterArray>:
	...
100047a0:	1421 1000 145d 1000 1209 1000 1255 1000     !...].......U...
100047b0:	12b1 1000 12fd 1000 1481 1000 0000 0000     ................
100047c0:	6576 7463 726f 3a3a 4d5f 695f 736e 7265     vector::_M_inser
100047d0:	5f74 7561 0078 0000                         t_aux...

100047d8 <_ZTV5Frame>:
	...
100047e0:	28d1 1000 2911 1000 6576 7463 726f 3a3a     .(...)..vector::
100047f0:	4d5f 695f 736e 7265 5f74 7561 0078 0000     _M_insert_aux...

10004800 <_ZTV4Cube>:
	...
10004808:	2c21 1000 2c5d 1000                         !,..],..

10004810 <_ZTV5Floor>:
	...
10004818:	38bd 1000 3915 1000 fff4 ffff 0000 0000     .8...9..........
10004828:	3905 1000 3939 1000                         .9..99..

10004830 <_ZTV7XObject>:
	...
10004838:	3b81 1000 3bad 1000 0043 0000               .;...;..C...

10004844 <__sf_fake_stdin>:
	...

10004864 <__sf_fake_stdout>:
	...

10004884 <__sf_fake_stderr>:
	...

Disassembly of section .VENEER_Code:

2000000c <HardFault_Veneer>:
2000000c:	482c      	ldr	r0, [pc, #176]	; (200000c0 <CCU40_3_Veneer+0x20>)
2000000e:	4687      	mov	pc, r0
	...

2000002c <SVC_Veneer>:
2000002c:	4825      	ldr	r0, [pc, #148]	; (200000c4 <CCU40_3_Veneer+0x24>)
2000002e:	4687      	mov	pc, r0
	...

20000038 <PendSV_Veneer>:
20000038:	4823      	ldr	r0, [pc, #140]	; (200000c8 <CCU40_3_Veneer+0x28>)
2000003a:	4687      	mov	pc, r0

2000003c <SysTick_Veneer>:
2000003c:	4823      	ldr	r0, [pc, #140]	; (200000cc <CCU40_3_Veneer+0x2c>)
2000003e:	4687      	mov	pc, r0

20000040 <SCU_0_Veneer>:
20000040:	4823      	ldr	r0, [pc, #140]	; (200000d0 <CCU40_3_Veneer+0x30>)
20000042:	4687      	mov	pc, r0

20000044 <SCU_1_Veneer>:
20000044:	4823      	ldr	r0, [pc, #140]	; (200000d4 <CCU40_3_Veneer+0x34>)
20000046:	4687      	mov	pc, r0

20000048 <SCU_2_Veneer>:
20000048:	4823      	ldr	r0, [pc, #140]	; (200000d8 <CCU40_3_Veneer+0x38>)
2000004a:	4687      	mov	pc, r0

2000004c <SCU_3_Veneer>:
2000004c:	4823      	ldr	r0, [pc, #140]	; (200000dc <CCU40_3_Veneer+0x3c>)
2000004e:	4687      	mov	pc, r0

20000050 <SCU_4_Veneer>:
20000050:	4823      	ldr	r0, [pc, #140]	; (200000e0 <CCU40_3_Veneer+0x40>)
20000052:	4687      	mov	pc, r0

20000054 <SCU_5_Veneer>:
20000054:	4823      	ldr	r0, [pc, #140]	; (200000e4 <CCU40_3_Veneer+0x44>)
20000056:	4687      	mov	pc, r0

20000058 <SCU_6_Veneer>:
20000058:	4823      	ldr	r0, [pc, #140]	; (200000e8 <CCU40_3_Veneer+0x48>)
2000005a:	4687      	mov	pc, r0
	...

20000064 <USIC0_0_Veneer>:
20000064:	4821      	ldr	r0, [pc, #132]	; (200000ec <CCU40_3_Veneer+0x4c>)
20000066:	4687      	mov	pc, r0

20000068 <USIC0_1_Veneer>:
20000068:	4821      	ldr	r0, [pc, #132]	; (200000f0 <CCU40_3_Veneer+0x50>)
2000006a:	4687      	mov	pc, r0

2000006c <USIC0_2_Veneer>:
2000006c:	4821      	ldr	r0, [pc, #132]	; (200000f4 <CCU40_3_Veneer+0x54>)
2000006e:	4687      	mov	pc, r0

20000070 <USIC0_3_Veneer>:
20000070:	4821      	ldr	r0, [pc, #132]	; (200000f8 <CCU40_3_Veneer+0x58>)
20000072:	4687      	mov	pc, r0

20000074 <USIC0_4_Veneer>:
20000074:	4821      	ldr	r0, [pc, #132]	; (200000fc <CCU40_3_Veneer+0x5c>)
20000076:	4687      	mov	pc, r0

20000078 <USIC0_5_Veneer>:
20000078:	4821      	ldr	r0, [pc, #132]	; (20000100 <CCU40_3_Veneer+0x60>)
2000007a:	4687      	mov	pc, r0

2000007c <VADC0_C0_0_Veneer>:
2000007c:	4821      	ldr	r0, [pc, #132]	; (20000104 <CCU40_3_Veneer+0x64>)
2000007e:	4687      	mov	pc, r0

20000080 <VADC0_C0_1_Veneer>:
20000080:	4821      	ldr	r0, [pc, #132]	; (20000108 <CCU40_3_Veneer+0x68>)
20000082:	4687      	mov	pc, r0
	...

20000094 <CCU40_0_Veneer>:
20000094:	481d      	ldr	r0, [pc, #116]	; (2000010c <CCU40_3_Veneer+0x6c>)
20000096:	4687      	mov	pc, r0

20000098 <CCU40_1_Veneer>:
20000098:	481d      	ldr	r0, [pc, #116]	; (20000110 <CCU40_3_Veneer+0x70>)
2000009a:	4687      	mov	pc, r0

2000009c <CCU40_2_Veneer>:
2000009c:	481d      	ldr	r0, [pc, #116]	; (20000114 <CCU40_3_Veneer+0x74>)
2000009e:	4687      	mov	pc, r0

200000a0 <CCU40_3_Veneer>:
200000a0:	481d      	ldr	r0, [pc, #116]	; (20000118 <CCU40_3_Veneer+0x78>)
200000a2:	4687      	mov	pc, r0
	...
200000c0:	10001099 	.word	0x10001099
200000c4:	10001099 	.word	0x10001099
200000c8:	10001099 	.word	0x10001099
200000cc:	1000412d 	.word	0x1000412d
200000d0:	10001099 	.word	0x10001099
200000d4:	10001099 	.word	0x10001099
200000d8:	10001099 	.word	0x10001099
200000dc:	10001099 	.word	0x10001099
200000e0:	10001099 	.word	0x10001099
200000e4:	10001099 	.word	0x10001099
200000e8:	10001099 	.word	0x10001099
200000ec:	10001099 	.word	0x10001099
200000f0:	10001099 	.word	0x10001099
200000f4:	10001099 	.word	0x10001099
200000f8:	10001099 	.word	0x10001099
200000fc:	10001099 	.word	0x10001099
20000100:	10001099 	.word	0x10001099
20000104:	10001099 	.word	0x10001099
20000108:	10001099 	.word	0x10001099
2000010c:	10001099 	.word	0x10001099
20000110:	10001099 	.word	0x10001099
20000114:	10001099 	.word	0x10001099
20000118:	10001099 	.word	0x10001099
